

Microchip MPLAB XC8 Assembler V2.31 build 20201012212115 
                                                                                               Fri May 28 18:51:49 2021

Microchip MPLAB XC8 C Compiler v2.31 (Free license) build 20201012212115 Og1 
     1                           	processor	16F887
     2                           	pagewidth 120
     3                           	opt	flic
     4                           	psect	cinit,global,class=CODE,merge=1,delta=2
     5                           	psect	bssCOMMON,global,class=COMMON,space=1,delta=1,noexec
     6                           	psect	cstackCOMMON,global,class=COMMON,space=1,delta=1,noexec
     7                           	psect	maintext,global,class=CODE,split=1,delta=2
     8                           	psect	text1,local,class=CODE,merge=1,delta=2
     9                           	psect	text2,local,class=CODE,merge=1,delta=2
    10                           	psect	intentry,global,class=CODE,delta=2
    11                           	psect	text3,local,class=CODE,merge=1,delta=2
    12                           	psect	text4,local,class=CODE,merge=1,delta=2
    13                           	psect	text5,local,class=CODE,merge=1,delta=2
    14                           	psect	text6,local,class=CODE,merge=1,delta=2
    15                           	psect	text7,local,class=CODE,merge=1,delta=2
    16                           	psect	text8,local,class=CODE,merge=1,delta=2
    17                           	psect	text9,local,class=CODE,merge=1,delta=2
    18                           	psect	text10,local,class=CODE,merge=1,delta=2
    19                           	psect	text11,local,class=CODE,merge=1,delta=2
    20                           	psect	text12,local,class=CODE,merge=1,delta=2
    21                           	psect	text13,local,class=CODE,merge=1,delta=2
    22                           	psect	text14,local,class=CODE,merge=1,delta=2
    23                           	psect	text15,local,class=CODE,merge=1,delta=2
    24                           	psect	text16,local,class=CODE,merge=1,delta=2
    25                           	psect	text17,local,class=CODE,merge=1,delta=2
    26                           	psect	text18,local,class=CODE,merge=1,delta=2
    27                           	psect	text19,local,class=CODE,merge=1,delta=2
    28                           	psect	text20,local,class=CODE,merge=1,delta=2
    29                           	psect	text21,local,class=CODE,merge=1,delta=2
    30                           	psect	text22,local,class=CODE,merge=1,delta=2
    31                           	psect	config,global,abs,ovrld,class=CONFIG,space=4,delta=2,noexec
    32                           	dabs	1,0x7E,2
    33  0000                     
    34                           ; Version 2.20
    35                           ; Generated 12/02/2020 GMT
    36                           ; 
    37                           ; Copyright © 2020, Microchip Technology Inc. and its subsidiaries ("Microchip")
    38                           ; All rights reserved.
    39                           ; 
    40                           ; This software is developed by Microchip Technology Inc. and its subsidiaries ("Microch
      +                          ip").
    41                           ; 
    42                           ; Redistribution and use in source and binary forms, with or without modification, are
    43                           ; permitted provided that the following conditions are met:
    44                           ; 
    45                           ;     1. Redistributions of source code must retain the above copyright notice, this lis
      +                          t of
    46                           ;        conditions and the following disclaimer.
    47                           ; 
    48                           ;     2. Redistributions in binary form must reproduce the above copyright notice, this 
      +                          list
    49                           ;        of conditions and the following disclaimer in the documentation and/or other
    50                           ;        materials provided with the distribution.
    51                           ; 
    52                           ;     3. Microchip's name may not be used to endorse or promote products derived from th
      +                          is
    53                           ;        software without specific prior written permission.
    54                           ; 
    55                           ; THIS SOFTWARE IS PROVIDED BY MICROCHIP "AS IS" AND ANY EXPRESS OR IMPLIED WARRANTIES,
    56                           ; INCLUDING, BUT NOT LIMITED TO, THE IMPLIED WARRANTIES OF MERCHANTABILITY AND FITNESS F
      +                          OR
    57                           ; PURPOSE ARE DISCLAIMED.  IN NO EVENT SHALL MICROCHIP BE LIABLE FOR ANY DIRECT, INDIREC
      +                          T,
    58                           ; INCIDENTAL, SPECIAL, EXEMPLARY, OR CONSEQUENTIAL DAMAGES (INCLUDING BUT NOT LIMITED TO
    59                           ; PROCUREMENT OF SUBSTITUTE GOODS OR SERVICES; LOSS OF USE, DATA OR PROFITS; OR BUSINESS
    60                           ; INTERRUPTION) HOWSOEVER CAUSED AND ON ANY THEORY OF LIABILITY, WHETHER IN CONTRACT, ST
      +                          RICT
    61                           ; LIABILITY, OR TORT (INCLUDING NEGLIGENCE OR OTHERWISE) ARISING IN ANY WAY OUT OF THE U
      +                          SE OF
    62                           ; THIS SOFTWARE, EVEN IF ADVISED OF THE POSSIBILITY OF SUCH DAMAGE.
    63                           ; 
    64                           ; 
    65                           ; Code-generator required, PIC16F887 Definitions
    66                           ; 
    67                           ; SFR Addresses
    68  0000                     	;# 
    69  0001                     	;# 
    70  0002                     	;# 
    71  0003                     	;# 
    72  0004                     	;# 
    73  0005                     	;# 
    74  0006                     	;# 
    75  0007                     	;# 
    76  0008                     	;# 
    77  0009                     	;# 
    78  000A                     	;# 
    79  000B                     	;# 
    80  000C                     	;# 
    81  000D                     	;# 
    82  000E                     	;# 
    83  000E                     	;# 
    84  000F                     	;# 
    85  0010                     	;# 
    86  0011                     	;# 
    87  0012                     	;# 
    88  0013                     	;# 
    89  0014                     	;# 
    90  0015                     	;# 
    91  0015                     	;# 
    92  0016                     	;# 
    93  0017                     	;# 
    94  0018                     	;# 
    95  0019                     	;# 
    96  001A                     	;# 
    97  001B                     	;# 
    98  001B                     	;# 
    99  001C                     	;# 
   100  001D                     	;# 
   101  001E                     	;# 
   102  001F                     	;# 
   103  0081                     	;# 
   104  0085                     	;# 
   105  0086                     	;# 
   106  0087                     	;# 
   107  0088                     	;# 
   108  0089                     	;# 
   109  008C                     	;# 
   110  008D                     	;# 
   111  008E                     	;# 
   112  008F                     	;# 
   113  0090                     	;# 
   114  0091                     	;# 
   115  0092                     	;# 
   116  0093                     	;# 
   117  0093                     	;# 
   118  0093                     	;# 
   119  0094                     	;# 
   120  0095                     	;# 
   121  0096                     	;# 
   122  0097                     	;# 
   123  0098                     	;# 
   124  0099                     	;# 
   125  009A                     	;# 
   126  009B                     	;# 
   127  009C                     	;# 
   128  009D                     	;# 
   129  009E                     	;# 
   130  009F                     	;# 
   131  0105                     	;# 
   132  0107                     	;# 
   133  0108                     	;# 
   134  0109                     	;# 
   135  010C                     	;# 
   136  010C                     	;# 
   137  010D                     	;# 
   138  010E                     	;# 
   139  010F                     	;# 
   140  0185                     	;# 
   141  0187                     	;# 
   142  0188                     	;# 
   143  0189                     	;# 
   144  018C                     	;# 
   145  018D                     	;# 
   146  0000                     	;# 
   147  0001                     	;# 
   148  0002                     	;# 
   149  0003                     	;# 
   150  0004                     	;# 
   151  0005                     	;# 
   152  0006                     	;# 
   153  0007                     	;# 
   154  0008                     	;# 
   155  0009                     	;# 
   156  000A                     	;# 
   157  000B                     	;# 
   158  000C                     	;# 
   159  000D                     	;# 
   160  000E                     	;# 
   161  000E                     	;# 
   162  000F                     	;# 
   163  0010                     	;# 
   164  0011                     	;# 
   165  0012                     	;# 
   166  0013                     	;# 
   167  0014                     	;# 
   168  0015                     	;# 
   169  0015                     	;# 
   170  0016                     	;# 
   171  0017                     	;# 
   172  0018                     	;# 
   173  0019                     	;# 
   174  001A                     	;# 
   175  001B                     	;# 
   176  001B                     	;# 
   177  001C                     	;# 
   178  001D                     	;# 
   179  001E                     	;# 
   180  001F                     	;# 
   181  0081                     	;# 
   182  0085                     	;# 
   183  0086                     	;# 
   184  0087                     	;# 
   185  0088                     	;# 
   186  0089                     	;# 
   187  008C                     	;# 
   188  008D                     	;# 
   189  008E                     	;# 
   190  008F                     	;# 
   191  0090                     	;# 
   192  0091                     	;# 
   193  0092                     	;# 
   194  0093                     	;# 
   195  0093                     	;# 
   196  0093                     	;# 
   197  0094                     	;# 
   198  0095                     	;# 
   199  0096                     	;# 
   200  0097                     	;# 
   201  0098                     	;# 
   202  0099                     	;# 
   203  009A                     	;# 
   204  009B                     	;# 
   205  009C                     	;# 
   206  009D                     	;# 
   207  009E                     	;# 
   208  009F                     	;# 
   209  0105                     	;# 
   210  0107                     	;# 
   211  0108                     	;# 
   212  0109                     	;# 
   213  010C                     	;# 
   214  010C                     	;# 
   215  010D                     	;# 
   216  010E                     	;# 
   217  010F                     	;# 
   218  0185                     	;# 
   219  0187                     	;# 
   220  0188                     	;# 
   221  0189                     	;# 
   222  018C                     	;# 
   223  018D                     	;# 
   224  0006                     _PORTBbits	set	6
   225  000B                     _INTCONbits	set	11
   226  0012                     _T2CONbits	set	18
   227  001D                     _CCP2CONbits	set	29
   228  0017                     _CCP1CONbits	set	23
   229  0007                     _PORTC	set	7
   230  0006                     _PORTB	set	6
   231  0008                     _PORTD	set	8
   232  0005                     _PORTA	set	5
   233  001E                     _ADRESH	set	30
   234  001B                     _CCPR2L	set	27
   235  0015                     _CCPR1L	set	21
   236  0008                     _PORTDbits	set	8
   237  001F                     _ADCON0bits	set	31
   238  000C                     _PIR1bits	set	12
   239  008C                     _PIE1bits	set	140
   240  0092                     _PR2	set	146
   241  0087                     _TRISCbits	set	135
   242  009F                     _ADCON1bits	set	159
   243  008F                     _OSCCONbits	set	143
   244  0088                     _TRISDbits	set	136
   245  0086                     _TRISBbits	set	134
   246  0085                     _TRISA	set	133
   247  0189                     _ANSELH	set	393
   248  0188                     _ANSEL	set	392
   249                           
   250                           	psect	cinit
   251  0013                     start_initialization:	
   252                           ; #config settings
   253                           
   254  0013                     __initialization:
   255                           
   256                           ; Clear objects allocated to COMMON
   257  0013  01F7               	clrf	__pbssCOMMON& (0+127)
   258  0014  01F8               	clrf	(__pbssCOMMON+1)& (0+127)
   259  0015                     end_of_initialization:	
   260                           ;End of C runtime variable initialization code
   261                           
   262  0015                     __end_of__initialization:
   263  0015  0183               	clrf	3
   264  0016  120A  118A  2CEF   	ljmp	_main	;jump to C main() function
   265                           
   266                           	psect	bssCOMMON
   267  0077                     __pbssCOMMON:
   268  0077                     _M:
   269  0077                     	ds	2
   270                           
   271                           	psect	cstackCOMMON
   272  0070                     __pcstackCOMMON:
   273  0070                     ?_servo1:
   274  0070                     ??_servo1:	
   275                           ; 1 bytes @ 0x0
   276                           
   277  0070                     ?_servo1_2:	
   278                           ; 1 bytes @ 0x0
   279                           
   280  0070                     ??_servo1_2:	
   281                           ; 1 bytes @ 0x0
   282                           
   283  0070                     ?_servo1_3:	
   284                           ; 1 bytes @ 0x0
   285                           
   286  0070                     ??_servo1_3:	
   287                           ; 1 bytes @ 0x0
   288                           
   289  0070                     ?_servo1_4:	
   290                           ; 1 bytes @ 0x0
   291                           
   292  0070                     ??_servo1_4:	
   293                           ; 1 bytes @ 0x0
   294                           
   295  0070                     ?_servo1_5:	
   296                           ; 1 bytes @ 0x0
   297                           
   298  0070                     ??_servo1_5:	
   299                           ; 1 bytes @ 0x0
   300                           
   301  0070                     ?_servo2:	
   302                           ; 1 bytes @ 0x0
   303                           
   304  0070                     ??_servo2:	
   305                           ; 1 bytes @ 0x0
   306                           
   307  0070                     ?_servo2_2:	
   308                           ; 1 bytes @ 0x0
   309                           
   310  0070                     ??_servo2_2:	
   311                           ; 1 bytes @ 0x0
   312                           
   313  0070                     ?_servo2_3:	
   314                           ; 1 bytes @ 0x0
   315                           
   316  0070                     ??_servo2_3:	
   317                           ; 1 bytes @ 0x0
   318                           
   319  0070                     ?_servo2_4:	
   320                           ; 1 bytes @ 0x0
   321                           
   322  0070                     ??_servo2_4:	
   323                           ; 1 bytes @ 0x0
   324                           
   325  0070                     ?_servo2_5:	
   326                           ; 1 bytes @ 0x0
   327                           
   328  0070                     ??_servo2_5:	
   329                           ; 1 bytes @ 0x0
   330                           
   331  0070                     ?_servo3:	
   332                           ; 1 bytes @ 0x0
   333                           
   334  0070                     ??_servo3:	
   335                           ; 1 bytes @ 0x0
   336                           
   337  0070                     ?_servo3_2:	
   338                           ; 1 bytes @ 0x0
   339                           
   340  0070                     ??_servo3_2:	
   341                           ; 1 bytes @ 0x0
   342                           
   343  0070                     ?_servo3_3:	
   344                           ; 1 bytes @ 0x0
   345                           
   346  0070                     ??_servo3_3:	
   347                           ; 1 bytes @ 0x0
   348                           
   349  0070                     ?_servo3_4:	
   350                           ; 1 bytes @ 0x0
   351                           
   352  0070                     ??_servo3_4:	
   353                           ; 1 bytes @ 0x0
   354                           
   355  0070                     ?_servo3_5:	
   356                           ; 1 bytes @ 0x0
   357                           
   358  0070                     ??_servo3_5:	
   359                           ; 1 bytes @ 0x0
   360                           
   361  0070                     ?_servo4:	
   362                           ; 1 bytes @ 0x0
   363                           
   364  0070                     ??_servo4:	
   365                           ; 1 bytes @ 0x0
   366                           
   367  0070                     ?_servo4_2:	
   368                           ; 1 bytes @ 0x0
   369                           
   370  0070                     ??_servo4_2:	
   371                           ; 1 bytes @ 0x0
   372                           
   373  0070                     ?_servo4_3:	
   374                           ; 1 bytes @ 0x0
   375                           
   376  0070                     ??_servo4_3:	
   377                           ; 1 bytes @ 0x0
   378                           
   379  0070                     ?_servo4_4:	
   380                           ; 1 bytes @ 0x0
   381                           
   382  0070                     ??_servo4_4:	
   383                           ; 1 bytes @ 0x0
   384                           
   385  0070                     ?_servo4_5:	
   386                           ; 1 bytes @ 0x0
   387                           
   388  0070                     ??_servo4_5:	
   389                           ; 1 bytes @ 0x0
   390                           
   391  0070                     ?_setup:	
   392                           ; 1 bytes @ 0x0
   393                           
   394  0070                     ?_isr:	
   395                           ; 1 bytes @ 0x0
   396                           
   397  0070                     ?_main:	
   398                           ; 1 bytes @ 0x0
   399                           
   400                           
   401                           ; 1 bytes @ 0x0
   402  0070                     	ds	2
   403  0072                     ??_isr:
   404                           
   405                           ; 1 bytes @ 0x2
   406  0072                     	ds	5
   407  0077                     ??_setup:
   408  0077                     ??_main:	
   409                           ; 1 bytes @ 0x7
   410                           
   411                           
   412                           	psect	maintext
   413  04EF                     __pmaintext:	
   414                           ; 1 bytes @ 0x7
   415 ;;
   416 ;;Main: autosize = 0, tempsize = 0, incstack = 0, save=0
   417 ;;
   418 ;; *************** function _main *****************
   419 ;; Defined at:
   420 ;;		line 209 in file "pro2.c"
   421 ;; Parameters:    Size  Location     Type
   422 ;;		None
   423 ;; Auto vars:     Size  Location     Type
   424 ;;		None
   425 ;; Return value:  Size  Location     Type
   426 ;;                  1    wreg      void 
   427 ;; Registers used:
   428 ;;		wreg, status,2, status,0, pclath, cstack
   429 ;; Tracked objects:
   430 ;;		On entry : B00/0
   431 ;;		On exit  : 0/0
   432 ;;		Unchanged: 0/0
   433 ;; Data sizes:     COMMON   BANK0   BANK1   BANK3   BANK2
   434 ;;      Params:         0       0       0       0       0
   435 ;;      Locals:         0       0       0       0       0
   436 ;;      Temps:          0       0       0       0       0
   437 ;;      Totals:         0       0       0       0       0
   438 ;;Total ram usage:        0 bytes
   439 ;; Hardware stack levels required when called:    3
   440 ;; This function calls:
   441 ;;		_setup
   442 ;; This function is called by:
   443 ;;		Startup code after reset
   444 ;; This function uses a non-reentrant model
   445 ;;
   446                           
   447                           
   448                           ;psect for function _main
   449  04EF                     _main:
   450  04EF                     l1142:	
   451                           ;incstack = 0
   452                           ; Regs used in _main: [wreg+status,2+status,0+pclath+cstack]
   453                           
   454  04EF  120A  118A  22A7  120A  118A  	fcall	_setup
   455  04F4                     l1144:
   456  04F4  1283               	bcf	3,5	;RP0=0, select bank0
   457  04F5  1303               	bcf	3,6	;RP1=0, select bank0
   458  04F6  149F               	bsf	31,1	;volatile
   459  04F7  2CF4               	goto	l1144
   460  04F8  120A  118A  2810   	ljmp	start
   461  04FB                     __end_of_main:
   462                           
   463                           	psect	text1
   464  02A7                     __ptext1:	
   465 ;; *************** function _setup *****************
   466 ;; Defined at:
   467 ;;		line 221 in file "pro2.c"
   468 ;; Parameters:    Size  Location     Type
   469 ;;		None
   470 ;; Auto vars:     Size  Location     Type
   471 ;;		None
   472 ;; Return value:  Size  Location     Type
   473 ;;                  1    wreg      void 
   474 ;; Registers used:
   475 ;;		wreg, status,2, status,0
   476 ;; Tracked objects:
   477 ;;		On entry : 0/0
   478 ;;		On exit  : 0/0
   479 ;;		Unchanged: 0/0
   480 ;; Data sizes:     COMMON   BANK0   BANK1   BANK3   BANK2
   481 ;;      Params:         0       0       0       0       0
   482 ;;      Locals:         0       0       0       0       0
   483 ;;      Temps:          0       0       0       0       0
   484 ;;      Totals:         0       0       0       0       0
   485 ;;Total ram usage:        0 bytes
   486 ;; Hardware stack levels used:    1
   487 ;; Hardware stack levels required when called:    2
   488 ;; This function calls:
   489 ;;		Nothing
   490 ;; This function is called by:
   491 ;;		_main
   492 ;; This function uses a non-reentrant model
   493 ;;
   494                           
   495                           
   496                           ;psect for function _setup
   497  02A7                     _setup:
   498  02A7                     l922:	
   499                           ;incstack = 0
   500                           ; Regs used in _setup: [wreg+status,2+status,0]
   501                           
   502  02A7  301F               	movlw	31
   503  02A8  1683               	bsf	3,5	;RP0=1, select bank3
   504  02A9  1703               	bsf	3,6	;RP1=1, select bank3
   505  02AA  0088               	movwf	8	;volatile
   506  02AB                     l924:
   507  02AB  0189               	clrf	9	;volatile
   508  02AC                     l926:
   509  02AC  30FF               	movlw	255
   510  02AD  1683               	bsf	3,5	;RP0=1, select bank1
   511  02AE  1303               	bcf	3,6	;RP1=0, select bank1
   512  02AF  0085               	movwf	5	;volatile
   513  02B0                     l928:
   514  02B0  1006               	bcf	6,0	;volatile
   515  02B1                     l930:
   516  02B1  1086               	bcf	6,1	;volatile
   517  02B2                     l932:
   518  02B2  1106               	bcf	6,2	;volatile
   519  02B3                     l934:
   520  02B3  1186               	bcf	6,3	;volatile
   521  02B4                     l936:
   522  02B4  1408               	bsf	8,0	;volatile
   523  02B5                     l938:
   524  02B5  1488               	bsf	8,1	;volatile
   525  02B6                     l940:
   526  02B6  1508               	bsf	8,2	;volatile
   527  02B7  1283               	bcf	3,5	;RP0=0, select bank0
   528  02B8  1303               	bcf	3,6	;RP1=0, select bank0
   529  02B9  0185               	clrf	5	;volatile
   530  02BA  0188               	clrf	8	;volatile
   531  02BB  0186               	clrf	6	;volatile
   532  02BC  0187               	clrf	7	;volatile
   533  02BD                     l942:
   534  02BD  1683               	bsf	3,5	;RP0=1, select bank1
   535  02BE  1303               	bcf	3,6	;RP1=0, select bank1
   536  02BF  170F               	bsf	15,6	;volatile
   537  02C0                     l944:
   538  02C0  168F               	bsf	15,5	;volatile
   539  02C1                     l946:
   540  02C1  160F               	bsf	15,4	;volatile
   541  02C2                     l948:
   542  02C2  140F               	bsf	15,0	;volatile
   543  02C3                     l950:
   544                           
   545                           ;pro2.c: 256:     ADCON0bits.CHS = 0;
   546  02C3  30C3               	movlw	-61
   547  02C4  1283               	bcf	3,5	;RP0=0, select bank0
   548  02C5  1303               	bcf	3,6	;RP1=0, select bank0
   549  02C6  059F               	andwf	31,f	;volatile
   550  02C7                     l952:
   551                           
   552                           ;pro2.c: 258:     ADCON0bits.ADCS1 = 1;
   553  02C7  179F               	bsf	31,7	;volatile
   554  02C8                     l954:
   555                           
   556                           ;pro2.c: 259:     ADCON0bits.ADCS0 = 0;
   557  02C8  131F               	bcf	31,6	;volatile
   558  02C9                     l956:
   559                           
   560                           ;pro2.c: 261:     ADCON0bits.ADON = 1;
   561  02C9  141F               	bsf	31,0	;volatile
   562  02CA                     l958:
   563                           
   564                           ;pro2.c: 263:     ADCON1bits.ADFM = 0;
   565  02CA  1683               	bsf	3,5	;RP0=1, select bank1
   566  02CB  1303               	bcf	3,6	;RP1=0, select bank1
   567  02CC  139F               	bcf	31,7	;volatile
   568  02CD                     l960:
   569                           
   570                           ;pro2.c: 264:     ADCON1bits.VCFG0 = 0;
   571  02CD  121F               	bcf	31,4	;volatile
   572  02CE                     l962:
   573                           
   574                           ;pro2.c: 265:     ADCON1bits.VCFG1 = 0;
   575  02CE  129F               	bcf	31,5	;volatile
   576  02CF                     l964:
   577                           
   578                           ;pro2.c: 268:     TRISCbits.TRISC2 = 1;
   579  02CF  1507               	bsf	7,2	;volatile
   580  02D0                     l966:
   581                           
   582                           ;pro2.c: 269:     TRISCbits.TRISC1 = 1;
   583  02D0  1487               	bsf	7,1	;volatile
   584  02D1                     l968:
   585                           
   586                           ;pro2.c: 270:     PR2 = 250;
   587  02D1  30FA               	movlw	250
   588  02D2  0092               	movwf	18	;volatile
   589  02D3                     l970:
   590                           
   591                           ;pro2.c: 271:     CCP1CONbits.P1M = 0;
   592  02D3  303F               	movlw	-193
   593  02D4  1283               	bcf	3,5	;RP0=0, select bank0
   594  02D5  1303               	bcf	3,6	;RP1=0, select bank0
   595  02D6  0597               	andwf	23,f	;volatile
   596  02D7                     l972:
   597                           
   598                           ;pro2.c: 272:     CCP1CONbits.CCP1M = 0b00001100;
   599  02D7  0817               	movf	23,w	;volatile
   600  02D8  39F0               	andlw	-16
   601  02D9  380C               	iorlw	12
   602  02DA  0097               	movwf	23	;volatile
   603  02DB                     l974:
   604                           
   605                           ;pro2.c: 273:     CCP2CONbits.DC2B0 = 0;
   606  02DB  121D               	bcf	29,4	;volatile
   607  02DC                     l976:
   608                           
   609                           ;pro2.c: 274:     CCP2CONbits.DC2B1 = 0;
   610  02DC  129D               	bcf	29,5	;volatile
   611  02DD                     l978:
   612                           
   613                           ;pro2.c: 275:     CCP2CONbits.CCP2M = 0b1111;
   614  02DD  300F               	movlw	15
   615  02DE  049D               	iorwf	29,f	;volatile
   616  02DF                     l980:
   617                           
   618                           ;pro2.c: 277:     CCPR1L = 0x0f;
   619  02DF  300F               	movlw	15
   620  02E0  0095               	movwf	21	;volatile
   621  02E1                     l982:
   622                           
   623                           ;pro2.c: 278:     CCP1CONbits.DC1B = 0;
   624  02E1  30CF               	movlw	-49
   625  02E2  0597               	andwf	23,f	;volatile
   626  02E3                     l984:
   627                           
   628                           ;pro2.c: 279:     CCPR2L = 0x0f;
   629  02E3  300F               	movlw	15
   630  02E4  009B               	movwf	27	;volatile
   631  02E5                     l986:
   632                           
   633                           ;pro2.c: 281:     PIR1bits.TMR2IF = 0;
   634  02E5  108C               	bcf	12,1	;volatile
   635  02E6                     l988:
   636                           
   637                           ;pro2.c: 282:     T2CONbits.T2CKPS = 0b11;
   638  02E6  3003               	movlw	3
   639  02E7  0492               	iorwf	18,f	;volatile
   640  02E8                     l990:
   641                           
   642                           ;pro2.c: 283:     T2CONbits.TMR2ON = 1;
   643  02E8  1512               	bsf	18,2	;volatile
   644  02E9                     l147:	
   645                           ;pro2.c: 285:     while (PIR1bits.TMR2IF == 0);
   646                           
   647  02E9  1C8C               	btfss	12,1	;volatile
   648  02EA  2AEC               	goto	u11
   649  02EB  2AED               	goto	u10
   650  02EC                     u11:
   651  02EC  2AE9               	goto	l147
   652  02ED                     u10:
   653  02ED                     l149:
   654                           
   655                           ;pro2.c: 286:     PIR1bits.TMR2IF = 0;
   656  02ED  108C               	bcf	12,1	;volatile
   657                           
   658                           ;pro2.c: 288:     TRISCbits.TRISC2 = 0;
   659  02EE  1683               	bsf	3,5	;RP0=1, select bank1
   660  02EF  1303               	bcf	3,6	;RP1=0, select bank1
   661  02F0  1107               	bcf	7,2	;volatile
   662                           
   663                           ;pro2.c: 289:     TRISCbits.TRISC1 = 0;
   664  02F1  1087               	bcf	7,1	;volatile
   665                           
   666                           ;pro2.c: 292:     INTCONbits.GIE = 1;
   667  02F2  178B               	bsf	11,7	;volatile
   668                           
   669                           ;pro2.c: 293:     PIR1bits.ADIF = 0;
   670  02F3  1283               	bcf	3,5	;RP0=0, select bank0
   671  02F4  1303               	bcf	3,6	;RP1=0, select bank0
   672  02F5  130C               	bcf	12,6	;volatile
   673                           
   674                           ;pro2.c: 294:     PIE1bits.ADIE = 1;
   675  02F6  1683               	bsf	3,5	;RP0=1, select bank1
   676  02F7  1303               	bcf	3,6	;RP1=0, select bank1
   677  02F8  170C               	bsf	12,6	;volatile
   678                           
   679                           ;pro2.c: 295:     INTCONbits.PEIE = 1;
   680  02F9  170B               	bsf	11,6	;volatile
   681  02FA                     l150:
   682  02FA  0008               	return
   683  02FB                     __end_of_setup:
   684                           
   685                           	psect	text2
   686  0019                     __ptext2:	
   687 ;; *************** function _isr *****************
   688 ;; Defined at:
   689 ;;		line 78 in file "pro2.c"
   690 ;; Parameters:    Size  Location     Type
   691 ;;		None
   692 ;; Auto vars:     Size  Location     Type
   693 ;;		None
   694 ;; Return value:  Size  Location     Type
   695 ;;                  1    wreg      void 
   696 ;; Registers used:
   697 ;;		wreg, status,2, status,0, btemp+1, pclath, cstack
   698 ;; Tracked objects:
   699 ;;		On entry : 0/0
   700 ;;		On exit  : 0/0
   701 ;;		Unchanged: 0/0
   702 ;; Data sizes:     COMMON   BANK0   BANK1   BANK3   BANK2
   703 ;;      Params:         0       0       0       0       0
   704 ;;      Locals:         0       0       0       0       0
   705 ;;      Temps:          5       0       0       0       0
   706 ;;      Totals:         5       0       0       0       0
   707 ;;Total ram usage:        5 bytes
   708 ;; Hardware stack levels used:    1
   709 ;; Hardware stack levels required when called:    1
   710 ;; This function calls:
   711 ;;		_servo1
   712 ;;		_servo1_2
   713 ;;		_servo1_3
   714 ;;		_servo1_4
   715 ;;		_servo1_5
   716 ;;		_servo2
   717 ;;		_servo2_2
   718 ;;		_servo2_3
   719 ;;		_servo2_4
   720 ;;		_servo2_5
   721 ;;		_servo3
   722 ;;		_servo3_2
   723 ;;		_servo3_3
   724 ;;		_servo3_4
   725 ;;		_servo3_5
   726 ;;		_servo4
   727 ;;		_servo4_2
   728 ;;		_servo4_3
   729 ;;		_servo4_4
   730 ;;		_servo4_5
   731 ;; This function is called by:
   732 ;;		Interrupt level 1
   733 ;; This function uses a non-reentrant model
   734 ;;
   735                           
   736                           
   737                           ;psect for function _isr
   738  0019                     _isr:
   739  0019                     i1l992:
   740                           
   741                           ;pro2.c: 80:                servo1_4();
   742  0019  1F0C               	btfss	12,6	;volatile
   743  001A  281C               	goto	u2_21
   744  001B  281D               	goto	u2_20
   745  001C                     u2_21:
   746  001C  2A9E               	goto	i1l136
   747  001D                     u2_20:
   748  001D                     i1l994:
   749                           
   750                           ;pro2.c: 81:             };pro2.c: 82:             if(M>=204)
   751  001D  0C1F               	rrf	31,w	;volatile
   752  001E  00F2               	movwf	??_isr
   753  001F  0C72               	rrf	??_isr,w
   754  0020  390F               	andlw	15
   755  0021  3A00               	xorlw	0
   756  0022  1D03               	skipz
   757  0023  2825               	goto	u3_21
   758  0024  2826               	goto	u3_20
   759  0025                     u3_21:
   760  0025  2842               	goto	i1l1010
   761  0026                     u3_20:
   762  0026                     i1l996:
   763                           
   764                           ;pro2.c: 83:             {;pro2.c: 84:                servo1_5();
   765  0026  081F               	movf	31,w	;volatile
   766  0027  39C3               	andlw	-61
   767  0028  3804               	iorlw	4
   768  0029  009F               	movwf	31	;volatile
   769  002A                     i1l998:
   770                           
   771                           ;pro2.c: 85:             }
   772  002A  1808               	btfsc	8,0	;volatile
   773  002B  282D               	goto	u4_21
   774  002C  282E               	goto	u4_20
   775  002D                     u4_21:
   776  002D  2832               	goto	i1l103
   777  002E                     u4_20:
   778  002E                     i1l1000:
   779                           
   780                           ;pro2.c: 86:         };pro2.c: 87:         else if (ADCON0bits.CHS == 2)
   781  002E  0195               	clrf	21	;volatile
   782  002F                     i1l1002:
   783                           
   784                           ;pro2.c: 88:         {
   785  002F  081E               	movf	30,w	;volatile
   786  0030  009B               	movwf	27	;volatile
   787                           
   788                           ;pro2.c: 89:             M = ADRESH;
   789  0031  2A97               	goto	i1l1138
   790  0032                     i1l103:	
   791                           ;pro2.c: 90:             ADCON0bits.CHS = 3;
   792                           
   793  0032  1888               	btfsc	8,1	;volatile
   794  0033  2835               	goto	u5_21
   795  0034  2836               	goto	u5_20
   796  0035                     u5_21:
   797  0035  283A               	goto	i1l105
   798  0036                     u5_20:
   799  0036                     i1l1004:
   800                           
   801                           ;pro2.c: 91:             if(M<=50);pro2.c: 92:             {
   802  0036  081E               	movf	30,w	;volatile
   803  0037  0095               	movwf	21	;volatile
   804  0038                     i1l1006:
   805                           
   806                           ;pro2.c: 93:                servo2();
   807  0038  019B               	clrf	27	;volatile
   808                           
   809                           ;pro2.c: 94:             }
   810  0039  2A97               	goto	i1l1138
   811  003A                     i1l105:	
   812                           ;pro2.c: 95:             if((M<=101)&&(M>=51))
   813                           
   814  003A  1908               	btfsc	8,2	;volatile
   815  003B  283D               	goto	u6_21
   816  003C  283E               	goto	u6_20
   817  003D                     u6_21:
   818  003D  2841               	goto	i1l104
   819  003E                     u6_20:
   820  003E                     i1l1008:
   821                           
   822                           ;pro2.c: 96:             {;pro2.c: 97:                servo2_2();
   823  003E  0195               	clrf	21	;volatile
   824                           
   825                           ;pro2.c: 98:             }
   826  003F  019B               	clrf	27	;volatile
   827  0040  2A97               	goto	i1l1138
   828  0041                     i1l104:
   829                           
   830                           ;pro2.c: 100:             {
   831  0041  2A97               	goto	i1l1138
   832  0042                     i1l1010:
   833  0042  0C1F               	rrf	31,w	;volatile
   834  0043  00F2               	movwf	??_isr
   835  0044  0C72               	rrf	??_isr,w
   836  0045  390F               	andlw	15
   837  0046  3A01               	xorlw	1
   838  0047  1D03               	skipz
   839  0048  284A               	goto	u7_21
   840  0049  284B               	goto	u7_20
   841  004A                     u7_21:
   842  004A  28D8               	goto	i1l1042
   843  004B                     u7_20:
   844  004B                     i1l1012:
   845                           
   846                           ;pro2.c: 102:             };pro2.c: 103:             if((M<=203)&&(M>=153))
   847  004B  081E               	movf	30,w	;volatile
   848  004C  00F2               	movwf	??_isr
   849  004D  01F3               	clrf	??_isr+1
   850  004E  0872               	movf	??_isr,w
   851  004F  00F7               	movwf	_M
   852  0050  0873               	movf	??_isr+1,w
   853  0051  00F8               	movwf	_M+1
   854  0052                     i1l1014:
   855                           
   856                           ;pro2.c: 104:             {
   857  0052  081F               	movf	31,w	;volatile
   858  0053  39C3               	andlw	-61
   859  0054  3808               	iorlw	8
   860  0055  009F               	movwf	31	;volatile
   861  0056                     i1l1016:
   862                           
   863                           ;pro2.c: 105:                servo2_4();
   864  0056  0878               	movf	_M+1,w
   865  0057  3A80               	xorlw	128
   866  0058  00FF               	movwf	btemp+1
   867  0059  3080               	movlw	128
   868  005A  027F               	subwf	btemp+1,w
   869  005B  1D03               	skipz
   870  005C  285F               	goto	u8_25
   871  005D  3033               	movlw	51
   872  005E  0277               	subwf	_M,w
   873  005F                     u8_25:
   874  005F  1803               	skipnc
   875  0060  2862               	goto	u8_21
   876  0061  2863               	goto	u8_20
   877  0062                     u8_21:
   878  0062  2868               	goto	i1l1020
   879  0063                     u8_20:
   880  0063                     i1l1018:
   881                           
   882                           ;pro2.c: 106:             };pro2.c: 107:             if(M>=204)
   883  0063  120A  118A  24D6  120A  118A  	fcall	_servo1
   884  0068                     i1l1020:
   885                           
   886                           ;pro2.c: 109:                servo2_5();
   887  0068  0878               	movf	_M+1,w
   888  0069  3A80               	xorlw	128
   889  006A  00FF               	movwf	btemp+1
   890  006B  3080               	movlw	128
   891  006C  027F               	subwf	btemp+1,w
   892  006D  1D03               	skipz
   893  006E  2871               	goto	u9_25
   894  006F  3066               	movlw	102
   895  0070  0277               	subwf	_M,w
   896  0071                     u9_25:
   897  0071  1803               	skipnc
   898  0072  2874               	goto	u9_21
   899  0073  2875               	goto	u9_20
   900  0074                     u9_21:
   901  0074  2887               	goto	i1l1026
   902  0075                     u9_20:
   903  0075                     i1l1022:
   904  0075  0878               	movf	_M+1,w
   905  0076  3A80               	xorlw	128
   906  0077  00FF               	movwf	btemp+1
   907  0078  3080               	movlw	128
   908  0079  027F               	subwf	btemp+1,w
   909  007A  1D03               	skipz
   910  007B  287E               	goto	u10_25
   911  007C  3033               	movlw	51
   912  007D  0277               	subwf	_M,w
   913  007E                     u10_25:
   914  007E  1C03               	skipc
   915  007F  2881               	goto	u10_21
   916  0080  2882               	goto	u10_20
   917  0081                     u10_21:
   918  0081  2887               	goto	i1l1026
   919  0082                     u10_20:
   920  0082                     i1l1024:
   921                           
   922                           ;pro2.c: 110:             };pro2.c: 111:         }
   923  0082  120A  118A  24BD  120A  118A  	fcall	_servo1_2
   924  0087                     i1l1026:
   925                           
   926                           ;pro2.c: 113:         {
   927  0087  0878               	movf	_M+1,w
   928  0088  3A80               	xorlw	128
   929  0089  00FF               	movwf	btemp+1
   930  008A  3080               	movlw	128
   931  008B  027F               	subwf	btemp+1,w
   932  008C  1D03               	skipz
   933  008D  2890               	goto	u11_25
   934  008E  3099               	movlw	153
   935  008F  0277               	subwf	_M,w
   936  0090                     u11_25:
   937  0090  1803               	skipnc
   938  0091  2893               	goto	u11_21
   939  0092  2894               	goto	u11_20
   940  0093                     u11_21:
   941  0093  28A6               	goto	i1l1032
   942  0094                     u11_20:
   943  0094                     i1l1028:
   944  0094  0878               	movf	_M+1,w
   945  0095  3A80               	xorlw	128
   946  0096  00FF               	movwf	btemp+1
   947  0097  3080               	movlw	128
   948  0098  027F               	subwf	btemp+1,w
   949  0099  1D03               	skipz
   950  009A  289D               	goto	u12_25
   951  009B  3066               	movlw	102
   952  009C  0277               	subwf	_M,w
   953  009D                     u12_25:
   954  009D  1C03               	skipc
   955  009E  28A0               	goto	u12_21
   956  009F  28A1               	goto	u12_20
   957  00A0                     u12_21:
   958  00A0  28A6               	goto	i1l1032
   959  00A1                     u12_20:
   960  00A1                     i1l1030:
   961                           
   962                           ;pro2.c: 114:             M = ADRESH;;pro2.c: 115:             ADCON0bits.CHS = 4;
   963  00A1  120A  118A  24A4  120A  118A  	fcall	_servo1_3
   964  00A6                     i1l1032:
   965                           
   966                           ;pro2.c: 117:             {
   967  00A6  0878               	movf	_M+1,w
   968  00A7  3A80               	xorlw	128
   969  00A8  00FF               	movwf	btemp+1
   970  00A9  3080               	movlw	128
   971  00AA  027F               	subwf	btemp+1,w
   972  00AB  1D03               	skipz
   973  00AC  28AF               	goto	u13_25
   974  00AD  30CC               	movlw	204
   975  00AE  0277               	subwf	_M,w
   976  00AF                     u13_25:
   977  00AF  1803               	skipnc
   978  00B0  28B2               	goto	u13_21
   979  00B1  28B3               	goto	u13_20
   980  00B2                     u13_21:
   981  00B2  28C5               	goto	i1l1038
   982  00B3                     u13_20:
   983  00B3                     i1l1034:
   984  00B3  0878               	movf	_M+1,w
   985  00B4  3A80               	xorlw	128
   986  00B5  00FF               	movwf	btemp+1
   987  00B6  3080               	movlw	128
   988  00B7  027F               	subwf	btemp+1,w
   989  00B8  1D03               	skipz
   990  00B9  28BC               	goto	u14_25
   991  00BA  3099               	movlw	153
   992  00BB  0277               	subwf	_M,w
   993  00BC                     u14_25:
   994  00BC  1C03               	skipc
   995  00BD  28BF               	goto	u14_21
   996  00BE  28C0               	goto	u14_20
   997  00BF                     u14_21:
   998  00BF  28C5               	goto	i1l1038
   999  00C0                     u14_20:
  1000  00C0                     i1l1036:
  1001                           
  1002                           ;pro2.c: 118:                servo3();;pro2.c: 119:             }
  1003  00C0  120A  118A  248B  120A  118A  	fcall	_servo1_4
  1004  00C5                     i1l1038:
  1005                           
  1006                           ;pro2.c: 121:             {
  1007  00C5  0878               	movf	_M+1,w
  1008  00C6  3A80               	xorlw	128
  1009  00C7  00FF               	movwf	btemp+1
  1010  00C8  3080               	movlw	128
  1011  00C9  027F               	subwf	btemp+1,w
  1012  00CA  1D03               	skipz
  1013  00CB  28CE               	goto	u15_25
  1014  00CC  30CC               	movlw	204
  1015  00CD  0277               	subwf	_M,w
  1016  00CE                     u15_25:
  1017  00CE  1C03               	skipc
  1018  00CF  28D1               	goto	u15_21
  1019  00D0  28D2               	goto	u15_20
  1020  00D1                     u15_21:
  1021  00D1  2A97               	goto	i1l1138
  1022  00D2                     u15_20:
  1023  00D2                     i1l1040:
  1024                           
  1025                           ;pro2.c: 122:                servo3_2();;pro2.c: 123:             }
  1026  00D2  120A  118A  2472  120A  118A  	fcall	_servo1_5
  1027  00D7  2A97               	goto	i1l1138
  1028  00D8                     i1l1042:
  1029  00D8  0C1F               	rrf	31,w	;volatile
  1030  00D9  00F2               	movwf	??_isr
  1031  00DA  0C72               	rrf	??_isr,w
  1032  00DB  390F               	andlw	15
  1033  00DC  3A02               	xorlw	2
  1034  00DD  1D03               	skipz
  1035  00DE  28E0               	goto	u16_21
  1036  00DF  28E1               	goto	u16_20
  1037  00E0                     u16_21:
  1038  00E0  296E               	goto	i1l1074
  1039  00E1                     u16_20:
  1040  00E1                     i1l1044:
  1041                           
  1042                           ;pro2.c: 127:             };pro2.c: 128:             if((M<=203)&&(M>=153))
  1043  00E1  081E               	movf	30,w	;volatile
  1044  00E2  00F2               	movwf	??_isr
  1045  00E3  01F3               	clrf	??_isr+1
  1046  00E4  0872               	movf	??_isr,w
  1047  00E5  00F7               	movwf	_M
  1048  00E6  0873               	movf	??_isr+1,w
  1049  00E7  00F8               	movwf	_M+1
  1050  00E8                     i1l1046:
  1051                           
  1052                           ;pro2.c: 129:             {
  1053  00E8  081F               	movf	31,w	;volatile
  1054  00E9  39C3               	andlw	-61
  1055  00EA  380C               	iorlw	12
  1056  00EB  009F               	movwf	31	;volatile
  1057  00EC                     i1l1048:
  1058                           
  1059                           ;pro2.c: 130:                servo3_4();
  1060  00EC  0878               	movf	_M+1,w
  1061  00ED  3A80               	xorlw	128
  1062  00EE  00FF               	movwf	btemp+1
  1063  00EF  3080               	movlw	128
  1064  00F0  027F               	subwf	btemp+1,w
  1065  00F1  1D03               	skipz
  1066  00F2  28F5               	goto	u17_25
  1067  00F3  3033               	movlw	51
  1068  00F4  0277               	subwf	_M,w
  1069  00F5                     u17_25:
  1070  00F5  1803               	skipnc
  1071  00F6  28F8               	goto	u17_21
  1072  00F7  28F9               	goto	u17_20
  1073  00F8                     u17_21:
  1074  00F8  28FE               	goto	i1l1052
  1075  00F9                     u17_20:
  1076  00F9                     i1l1050:
  1077                           
  1078                           ;pro2.c: 131:             };pro2.c: 132:             if(M>=204)
  1079  00F9  120A  118A  2459  120A  118A  	fcall	_servo2
  1080  00FE                     i1l1052:
  1081                           
  1082                           ;pro2.c: 134:                servo3_5();
  1083  00FE  0878               	movf	_M+1,w
  1084  00FF  3A80               	xorlw	128
  1085  0100  00FF               	movwf	btemp+1
  1086  0101  3080               	movlw	128
  1087  0102  027F               	subwf	btemp+1,w
  1088  0103  1D03               	skipz
  1089  0104  2907               	goto	u18_25
  1090  0105  3066               	movlw	102
  1091  0106  0277               	subwf	_M,w
  1092  0107                     u18_25:
  1093  0107  1803               	skipnc
  1094  0108  290A               	goto	u18_21
  1095  0109  290B               	goto	u18_20
  1096  010A                     u18_21:
  1097  010A  291D               	goto	i1l1058
  1098  010B                     u18_20:
  1099  010B                     i1l1054:
  1100  010B  0878               	movf	_M+1,w
  1101  010C  3A80               	xorlw	128
  1102  010D  00FF               	movwf	btemp+1
  1103  010E  3080               	movlw	128
  1104  010F  027F               	subwf	btemp+1,w
  1105  0110  1D03               	skipz
  1106  0111  2914               	goto	u19_25
  1107  0112  3033               	movlw	51
  1108  0113  0277               	subwf	_M,w
  1109  0114                     u19_25:
  1110  0114  1C03               	skipc
  1111  0115  2917               	goto	u19_21
  1112  0116  2918               	goto	u19_20
  1113  0117                     u19_21:
  1114  0117  291D               	goto	i1l1058
  1115  0118                     u19_20:
  1116  0118                     i1l1056:
  1117                           
  1118                           ;pro2.c: 135:             };pro2.c: 136:         }
  1119  0118  120A  118A  2440  120A  118A  	fcall	_servo2_2
  1120  011D                     i1l1058:
  1121                           
  1122                           ;pro2.c: 138:         {
  1123  011D  0878               	movf	_M+1,w
  1124  011E  3A80               	xorlw	128
  1125  011F  00FF               	movwf	btemp+1
  1126  0120  3080               	movlw	128
  1127  0121  027F               	subwf	btemp+1,w
  1128  0122  1D03               	skipz
  1129  0123  2926               	goto	u20_25
  1130  0124  3099               	movlw	153
  1131  0125  0277               	subwf	_M,w
  1132  0126                     u20_25:
  1133  0126  1803               	skipnc
  1134  0127  2929               	goto	u20_21
  1135  0128  292A               	goto	u20_20
  1136  0129                     u20_21:
  1137  0129  293C               	goto	i1l1064
  1138  012A                     u20_20:
  1139  012A                     i1l1060:
  1140  012A  0878               	movf	_M+1,w
  1141  012B  3A80               	xorlw	128
  1142  012C  00FF               	movwf	btemp+1
  1143  012D  3080               	movlw	128
  1144  012E  027F               	subwf	btemp+1,w
  1145  012F  1D03               	skipz
  1146  0130  2933               	goto	u21_25
  1147  0131  3066               	movlw	102
  1148  0132  0277               	subwf	_M,w
  1149  0133                     u21_25:
  1150  0133  1C03               	skipc
  1151  0134  2936               	goto	u21_21
  1152  0135  2937               	goto	u21_20
  1153  0136                     u21_21:
  1154  0136  293C               	goto	i1l1064
  1155  0137                     u21_20:
  1156  0137                     i1l1062:
  1157                           
  1158                           ;pro2.c: 139:             M = ADRESH;;pro2.c: 140:             ADCON0bits.CHS = 0;
  1159  0137  120A  118A  2427  120A  118A  	fcall	_servo2_3
  1160  013C                     i1l1064:
  1161                           
  1162                           ;pro2.c: 142:             {
  1163  013C  0878               	movf	_M+1,w
  1164  013D  3A80               	xorlw	128
  1165  013E  00FF               	movwf	btemp+1
  1166  013F  3080               	movlw	128
  1167  0140  027F               	subwf	btemp+1,w
  1168  0141  1D03               	skipz
  1169  0142  2945               	goto	u22_25
  1170  0143  30CC               	movlw	204
  1171  0144  0277               	subwf	_M,w
  1172  0145                     u22_25:
  1173  0145  1803               	skipnc
  1174  0146  2948               	goto	u22_21
  1175  0147  2949               	goto	u22_20
  1176  0148                     u22_21:
  1177  0148  295B               	goto	i1l1070
  1178  0149                     u22_20:
  1179  0149                     i1l1066:
  1180  0149  0878               	movf	_M+1,w
  1181  014A  3A80               	xorlw	128
  1182  014B  00FF               	movwf	btemp+1
  1183  014C  3080               	movlw	128
  1184  014D  027F               	subwf	btemp+1,w
  1185  014E  1D03               	skipz
  1186  014F  2952               	goto	u23_25
  1187  0150  3099               	movlw	153
  1188  0151  0277               	subwf	_M,w
  1189  0152                     u23_25:
  1190  0152  1C03               	skipc
  1191  0153  2955               	goto	u23_21
  1192  0154  2956               	goto	u23_20
  1193  0155                     u23_21:
  1194  0155  295B               	goto	i1l1070
  1195  0156                     u23_20:
  1196  0156                     i1l1068:
  1197                           
  1198                           ;pro2.c: 143:                servo4();;pro2.c: 144:             }
  1199  0156  120A  118A  240E  120A  118A  	fcall	_servo2_4
  1200  015B                     i1l1070:
  1201                           
  1202                           ;pro2.c: 146:             {
  1203  015B  0878               	movf	_M+1,w
  1204  015C  3A80               	xorlw	128
  1205  015D  00FF               	movwf	btemp+1
  1206  015E  3080               	movlw	128
  1207  015F  027F               	subwf	btemp+1,w
  1208  0160  1D03               	skipz
  1209  0161  2964               	goto	u24_25
  1210  0162  30CC               	movlw	204
  1211  0163  0277               	subwf	_M,w
  1212  0164                     u24_25:
  1213  0164  1C03               	skipc
  1214  0165  2967               	goto	u24_21
  1215  0166  2968               	goto	u24_20
  1216  0167                     u24_21:
  1217  0167  2A97               	goto	i1l1138
  1218  0168                     u24_20:
  1219  0168                     i1l1072:
  1220                           
  1221                           ;pro2.c: 147:                servo4_2();;pro2.c: 148:             }
  1222  0168  120A  118A  23F5  120A  118A  	fcall	_servo2_5
  1223  016D  2A97               	goto	i1l1138
  1224  016E                     i1l1074:
  1225  016E  0C1F               	rrf	31,w	;volatile
  1226  016F  00F2               	movwf	??_isr
  1227  0170  0C72               	rrf	??_isr,w
  1228  0171  390F               	andlw	15
  1229  0172  3A03               	xorlw	3
  1230  0173  1D03               	skipz
  1231  0174  2976               	goto	u25_21
  1232  0175  2977               	goto	u25_20
  1233  0176                     u25_21:
  1234  0176  2A04               	goto	i1l1106
  1235  0177                     u25_20:
  1236  0177                     i1l1076:
  1237                           
  1238                           ;pro2.c: 152:             };pro2.c: 153:             if((M<=203)&&(M>=153))
  1239  0177  081E               	movf	30,w	;volatile
  1240  0178  00F2               	movwf	??_isr
  1241  0179  01F3               	clrf	??_isr+1
  1242  017A  0872               	movf	??_isr,w
  1243  017B  00F7               	movwf	_M
  1244  017C  0873               	movf	??_isr+1,w
  1245  017D  00F8               	movwf	_M+1
  1246  017E                     i1l1078:
  1247                           
  1248                           ;pro2.c: 154:             {
  1249  017E  081F               	movf	31,w	;volatile
  1250  017F  39C3               	andlw	-61
  1251  0180  3810               	iorlw	16
  1252  0181  009F               	movwf	31	;volatile
  1253  0182                     i1l1080:
  1254                           
  1255                           ;pro2.c: 155:                servo4_4();
  1256  0182  0878               	movf	_M+1,w
  1257  0183  3A80               	xorlw	128
  1258  0184  00FF               	movwf	btemp+1
  1259  0185  3080               	movlw	128
  1260  0186  027F               	subwf	btemp+1,w
  1261  0187  1D03               	skipz
  1262  0188  298B               	goto	u26_25
  1263  0189  3033               	movlw	51
  1264  018A  0277               	subwf	_M,w
  1265  018B                     u26_25:
  1266  018B  1803               	skipnc
  1267  018C  298E               	goto	u26_21
  1268  018D  298F               	goto	u26_20
  1269  018E                     u26_21:
  1270  018E  2994               	goto	i1l1084
  1271  018F                     u26_20:
  1272  018F                     i1l1082:
  1273                           
  1274                           ;pro2.c: 156:             };pro2.c: 157:             if(M>=204)
  1275  018F  120A  118A  23DC  120A  118A  	fcall	_servo3
  1276  0194                     i1l1084:
  1277                           
  1278                           ;pro2.c: 159:                servo4_5();
  1279  0194  0878               	movf	_M+1,w
  1280  0195  3A80               	xorlw	128
  1281  0196  00FF               	movwf	btemp+1
  1282  0197  3080               	movlw	128
  1283  0198  027F               	subwf	btemp+1,w
  1284  0199  1D03               	skipz
  1285  019A  299D               	goto	u27_25
  1286  019B  3066               	movlw	102
  1287  019C  0277               	subwf	_M,w
  1288  019D                     u27_25:
  1289  019D  1803               	skipnc
  1290  019E  29A0               	goto	u27_21
  1291  019F  29A1               	goto	u27_20
  1292  01A0                     u27_21:
  1293  01A0  29B3               	goto	i1l1090
  1294  01A1                     u27_20:
  1295  01A1                     i1l1086:
  1296  01A1  0878               	movf	_M+1,w
  1297  01A2  3A80               	xorlw	128
  1298  01A3  00FF               	movwf	btemp+1
  1299  01A4  3080               	movlw	128
  1300  01A5  027F               	subwf	btemp+1,w
  1301  01A6  1D03               	skipz
  1302  01A7  29AA               	goto	u28_25
  1303  01A8  3033               	movlw	51
  1304  01A9  0277               	subwf	_M,w
  1305  01AA                     u28_25:
  1306  01AA  1C03               	skipc
  1307  01AB  29AD               	goto	u28_21
  1308  01AC  29AE               	goto	u28_20
  1309  01AD                     u28_21:
  1310  01AD  29B3               	goto	i1l1090
  1311  01AE                     u28_20:
  1312  01AE                     i1l1088:
  1313                           
  1314                           ;pro2.c: 160:             };pro2.c: 161:         }
  1315  01AE  120A  118A  23C3  120A  118A  	fcall	_servo3_2
  1316  01B3                     i1l1090:
  1317                           
  1318                           ;pro2.c: 163:         PIR1bits.ADIF = 0;
  1319  01B3  0878               	movf	_M+1,w
  1320  01B4  3A80               	xorlw	128
  1321  01B5  00FF               	movwf	btemp+1
  1322  01B6  3080               	movlw	128
  1323  01B7  027F               	subwf	btemp+1,w
  1324  01B8  1D03               	skipz
  1325  01B9  29BC               	goto	u29_25
  1326  01BA  3099               	movlw	153
  1327  01BB  0277               	subwf	_M,w
  1328  01BC                     u29_25:
  1329  01BC  1803               	skipnc
  1330  01BD  29BF               	goto	u29_21
  1331  01BE  29C0               	goto	u29_20
  1332  01BF                     u29_21:
  1333  01BF  29D2               	goto	i1l1096
  1334  01C0                     u29_20:
  1335  01C0                     i1l1092:
  1336  01C0  0878               	movf	_M+1,w
  1337  01C1  3A80               	xorlw	128
  1338  01C2  00FF               	movwf	btemp+1
  1339  01C3  3080               	movlw	128
  1340  01C4  027F               	subwf	btemp+1,w
  1341  01C5  1D03               	skipz
  1342  01C6  29C9               	goto	u30_25
  1343  01C7  3066               	movlw	102
  1344  01C8  0277               	subwf	_M,w
  1345  01C9                     u30_25:
  1346  01C9  1C03               	skipc
  1347  01CA  29CC               	goto	u30_21
  1348  01CB  29CD               	goto	u30_20
  1349  01CC                     u30_21:
  1350  01CC  29D2               	goto	i1l1096
  1351  01CD                     u30_20:
  1352  01CD                     i1l1094:
  1353                           
  1354                           ;pro2.c: 164:     };pro2.c: 165: }
  1355  01CD  120A  118A  23AA  120A  118A  	fcall	_servo3_3
  1356  01D2                     i1l1096:
  1357                           
  1358                           ;pro2.c: 167: 
  1359  01D2  0878               	movf	_M+1,w
  1360  01D3  3A80               	xorlw	128
  1361  01D4  00FF               	movwf	btemp+1
  1362  01D5  3080               	movlw	128
  1363  01D6  027F               	subwf	btemp+1,w
  1364  01D7  1D03               	skipz
  1365  01D8  29DB               	goto	u31_25
  1366  01D9  30CC               	movlw	204
  1367  01DA  0277               	subwf	_M,w
  1368  01DB                     u31_25:
  1369  01DB  1803               	skipnc
  1370  01DC  29DE               	goto	u31_21
  1371  01DD  29DF               	goto	u31_20
  1372  01DE                     u31_21:
  1373  01DE  29F1               	goto	i1l1102
  1374  01DF                     u31_20:
  1375  01DF                     i1l1098:
  1376  01DF  0878               	movf	_M+1,w
  1377  01E0  3A80               	xorlw	128
  1378  01E1  00FF               	movwf	btemp+1
  1379  01E2  3080               	movlw	128
  1380  01E3  027F               	subwf	btemp+1,w
  1381  01E4  1D03               	skipz
  1382  01E5  29E8               	goto	u32_25
  1383  01E6  3099               	movlw	153
  1384  01E7  0277               	subwf	_M,w
  1385  01E8                     u32_25:
  1386  01E8  1C03               	skipc
  1387  01E9  29EB               	goto	u32_21
  1388  01EA  29EC               	goto	u32_20
  1389  01EB                     u32_21:
  1390  01EB  29F1               	goto	i1l1102
  1391  01EC                     u32_20:
  1392  01EC                     i1l1100:
  1393                           
  1394                           ;pro2.c: 168: ;pro2.c: 169: 
  1395  01EC  120A  118A  2391  120A  118A  	fcall	_servo3_4
  1396  01F1                     i1l1102:
  1397                           
  1398                           ;pro2.c: 171: 
  1399  01F1  0878               	movf	_M+1,w
  1400  01F2  3A80               	xorlw	128
  1401  01F3  00FF               	movwf	btemp+1
  1402  01F4  3080               	movlw	128
  1403  01F5  027F               	subwf	btemp+1,w
  1404  01F6  1D03               	skipz
  1405  01F7  29FA               	goto	u33_25
  1406  01F8  30CC               	movlw	204
  1407  01F9  0277               	subwf	_M,w
  1408  01FA                     u33_25:
  1409  01FA  1C03               	skipc
  1410  01FB  29FD               	goto	u33_21
  1411  01FC  29FE               	goto	u33_20
  1412  01FD                     u33_21:
  1413  01FD  2A97               	goto	i1l1138
  1414  01FE                     u33_20:
  1415  01FE                     i1l1104:
  1416                           
  1417                           ;pro2.c: 172:     setup();;pro2.c: 173: 
  1418  01FE  120A  118A  2378  120A  118A  	fcall	_servo3_5
  1419  0203  2A97               	goto	i1l1138
  1420  0204                     i1l1106:
  1421  0204  0C1F               	rrf	31,w	;volatile
  1422  0205  00F2               	movwf	??_isr
  1423  0206  0C72               	rrf	??_isr,w
  1424  0207  390F               	andlw	15
  1425  0208  3A04               	xorlw	4
  1426  0209  1D03               	skipz
  1427  020A  2A0C               	goto	u34_21
  1428  020B  2A0D               	goto	u34_20
  1429  020C                     u34_21:
  1430  020C  2A97               	goto	i1l1138
  1431  020D                     u34_20:
  1432  020D                     i1l1108:
  1433                           
  1434                           ;pro2.c: 177: };pro2.c: 178: }
  1435  020D  081E               	movf	30,w	;volatile
  1436  020E  00F2               	movwf	??_isr
  1437  020F  01F3               	clrf	??_isr+1
  1438  0210  0872               	movf	??_isr,w
  1439  0211  00F7               	movwf	_M
  1440  0212  0873               	movf	??_isr+1,w
  1441  0213  00F8               	movwf	_M+1
  1442  0214                     i1l1110:
  1443                           
  1444                           ;pro2.c: 179: 
  1445  0214  30C3               	movlw	-61
  1446  0215  059F               	andwf	31,f	;volatile
  1447  0216                     i1l1112:
  1448                           
  1449                           ;pro2.c: 180: 
  1450  0216  0878               	movf	_M+1,w
  1451  0217  3A80               	xorlw	128
  1452  0218  00FF               	movwf	btemp+1
  1453  0219  3080               	movlw	128
  1454  021A  027F               	subwf	btemp+1,w
  1455  021B  1D03               	skipz
  1456  021C  2A1F               	goto	u35_25
  1457  021D  3033               	movlw	51
  1458  021E  0277               	subwf	_M,w
  1459  021F                     u35_25:
  1460  021F  1803               	skipnc
  1461  0220  2A22               	goto	u35_21
  1462  0221  2A23               	goto	u35_20
  1463  0222                     u35_21:
  1464  0222  2A28               	goto	i1l1116
  1465  0223                     u35_20:
  1466  0223                     i1l1114:
  1467                           
  1468                           ;pro2.c: 181: ;pro2.c: 182: void setup(void){
  1469  0223  120A  118A  235F  120A  118A  	fcall	_servo4
  1470  0228                     i1l1116:
  1471                           
  1472                           ;pro2.c: 184:     ANSEL = 0b00011111;
  1473  0228  0878               	movf	_M+1,w
  1474  0229  3A80               	xorlw	128
  1475  022A  00FF               	movwf	btemp+1
  1476  022B  3080               	movlw	128
  1477  022C  027F               	subwf	btemp+1,w
  1478  022D  1D03               	skipz
  1479  022E  2A31               	goto	u36_25
  1480  022F  3066               	movlw	102
  1481  0230  0277               	subwf	_M,w
  1482  0231                     u36_25:
  1483  0231  1803               	skipnc
  1484  0232  2A34               	goto	u36_21
  1485  0233  2A35               	goto	u36_20
  1486  0234                     u36_21:
  1487  0234  2A47               	goto	i1l1122
  1488  0235                     u36_20:
  1489  0235                     i1l1118:
  1490  0235  0878               	movf	_M+1,w
  1491  0236  3A80               	xorlw	128
  1492  0237  00FF               	movwf	btemp+1
  1493  0238  3080               	movlw	128
  1494  0239  027F               	subwf	btemp+1,w
  1495  023A  1D03               	skipz
  1496  023B  2A3E               	goto	u37_25
  1497  023C  3033               	movlw	51
  1498  023D  0277               	subwf	_M,w
  1499  023E                     u37_25:
  1500  023E  1C03               	skipc
  1501  023F  2A41               	goto	u37_21
  1502  0240  2A42               	goto	u37_20
  1503  0241                     u37_21:
  1504  0241  2A47               	goto	i1l1122
  1505  0242                     u37_20:
  1506  0242                     i1l1120:
  1507                           
  1508                           ;pro2.c: 185:     ANSELH = 0X00;;pro2.c: 186: 
  1509  0242  120A  118A  2346  120A  118A  	fcall	_servo4_2
  1510  0247                     i1l1122:
  1511                           
  1512                           ;pro2.c: 188:     TRISBbits.TRISB0 = 0;
  1513  0247  0878               	movf	_M+1,w
  1514  0248  3A80               	xorlw	128
  1515  0249  00FF               	movwf	btemp+1
  1516  024A  3080               	movlw	128
  1517  024B  027F               	subwf	btemp+1,w
  1518  024C  1D03               	skipz
  1519  024D  2A50               	goto	u38_25
  1520  024E  3099               	movlw	153
  1521  024F  0277               	subwf	_M,w
  1522  0250                     u38_25:
  1523  0250  1803               	skipnc
  1524  0251  2A53               	goto	u38_21
  1525  0252  2A54               	goto	u38_20
  1526  0253                     u38_21:
  1527  0253  2A66               	goto	i1l1128
  1528  0254                     u38_20:
  1529  0254                     i1l1124:
  1530  0254  0878               	movf	_M+1,w
  1531  0255  3A80               	xorlw	128
  1532  0256  00FF               	movwf	btemp+1
  1533  0257  3080               	movlw	128
  1534  0258  027F               	subwf	btemp+1,w
  1535  0259  1D03               	skipz
  1536  025A  2A5D               	goto	u39_25
  1537  025B  3066               	movlw	102
  1538  025C  0277               	subwf	_M,w
  1539  025D                     u39_25:
  1540  025D  1C03               	skipc
  1541  025E  2A60               	goto	u39_21
  1542  025F  2A61               	goto	u39_20
  1543  0260                     u39_21:
  1544  0260  2A66               	goto	i1l1128
  1545  0261                     u39_20:
  1546  0261                     i1l1126:
  1547                           
  1548                           ;pro2.c: 189:     TRISBbits.TRISB1 = 0;;pro2.c: 190:     TRISBbits.TRISB2 = 0;
  1549  0261  120A  118A  232D  120A  118A  	fcall	_servo4_3
  1550  0266                     i1l1128:
  1551                           
  1552                           ;pro2.c: 192:     TRISDbits.TRISD0 = 1;
  1553  0266  0878               	movf	_M+1,w
  1554  0267  3A80               	xorlw	128
  1555  0268  00FF               	movwf	btemp+1
  1556  0269  3080               	movlw	128
  1557  026A  027F               	subwf	btemp+1,w
  1558  026B  1D03               	skipz
  1559  026C  2A6F               	goto	u40_25
  1560  026D  30CC               	movlw	204
  1561  026E  0277               	subwf	_M,w
  1562  026F                     u40_25:
  1563  026F  1803               	skipnc
  1564  0270  2A72               	goto	u40_21
  1565  0271  2A73               	goto	u40_20
  1566  0272                     u40_21:
  1567  0272  2A85               	goto	i1l1134
  1568  0273                     u40_20:
  1569  0273                     i1l1130:
  1570  0273  0878               	movf	_M+1,w
  1571  0274  3A80               	xorlw	128
  1572  0275  00FF               	movwf	btemp+1
  1573  0276  3080               	movlw	128
  1574  0277  027F               	subwf	btemp+1,w
  1575  0278  1D03               	skipz
  1576  0279  2A7C               	goto	u41_25
  1577  027A  3099               	movlw	153
  1578  027B  0277               	subwf	_M,w
  1579  027C                     u41_25:
  1580  027C  1C03               	skipc
  1581  027D  2A7F               	goto	u41_21
  1582  027E  2A80               	goto	u41_20
  1583  027F                     u41_21:
  1584  027F  2A85               	goto	i1l1134
  1585  0280                     u41_20:
  1586  0280                     i1l1132:
  1587                           
  1588                           ;pro2.c: 193:     TRISDbits.TRISD1 = 1;;pro2.c: 194:     TRISDbits.TRISD2 = 1;
  1589  0280  120A  118A  2314  120A  118A  	fcall	_servo4_4
  1590  0285                     i1l1134:
  1591                           
  1592                           ;pro2.c: 196:     PORTA = 0X00;
  1593  0285  0878               	movf	_M+1,w
  1594  0286  3A80               	xorlw	128
  1595  0287  00FF               	movwf	btemp+1
  1596  0288  3080               	movlw	128
  1597  0289  027F               	subwf	btemp+1,w
  1598  028A  1D03               	skipz
  1599  028B  2A8E               	goto	u42_25
  1600  028C  30CC               	movlw	204
  1601  028D  0277               	subwf	_M,w
  1602  028E                     u42_25:
  1603  028E  1C03               	skipc
  1604  028F  2A91               	goto	u42_21
  1605  0290  2A92               	goto	u42_20
  1606  0291                     u42_21:
  1607  0291  2A97               	goto	i1l1138
  1608  0292                     u42_20:
  1609  0292                     i1l1136:
  1610                           
  1611                           ;pro2.c: 197:     PORTD = 0X00;;pro2.c: 198:     PORTB = 0X00;
  1612  0292  120A  118A  22FB  120A  118A  	fcall	_servo4_5
  1613  0297                     i1l1138:
  1614                           
  1615                           ;pro2.c: 201: 
  1616  0297  3021               	movlw	33
  1617  0298  00F2               	movwf	??_isr
  1618  0299                     u43_27:
  1619  0299  0BF2               	decfsz	??_isr,f
  1620  029A  2A99               	goto	u43_27
  1621  029B                     i1l1140:
  1622                           
  1623                           ;pro2.c: 202:     OSCCONbits.IRCF2 = 1;
  1624  029B  1283               	bcf	3,5	;RP0=0, select bank0
  1625  029C  1303               	bcf	3,6	;RP1=0, select bank0
  1626  029D  130C               	bcf	12,6	;volatile
  1627  029E                     i1l136:
  1628  029E  0876               	movf	??_isr+4,w
  1629  029F  00FF               	movwf	btemp+1
  1630  02A0  0875               	movf	??_isr+3,w
  1631  02A1  008A               	movwf	10
  1632  02A2  0E74               	swapf	??_isr+2,w
  1633  02A3  0083               	movwf	3
  1634  02A4  0EFE               	swapf	btemp,f
  1635  02A5  0E7E               	swapf	btemp,w
  1636  02A6  0009               	retfie
  1637  02A7                     __end_of_isr:
  1638                           
  1639                           	psect	intentry
  1640  0004                     __pintentry:	
  1641                           ;incstack = 0
  1642                           ; Regs used in _isr: [wreg+status,2+status,0+btemp+1+pclath+cstack]
  1643                           
  1644  0004                     interrupt_function:
  1645  007E                     saved_w	set	btemp
  1646  0004  00FE               	movwf	btemp
  1647  0005  0E03               	swapf	3,w
  1648  0006  00F4               	movwf	??_isr+2
  1649  0007  080A               	movf	10,w
  1650  0008  00F5               	movwf	??_isr+3
  1651  0009  1283               	bcf	3,5	;RP0=0, select bank0
  1652  000A  1303               	bcf	3,6	;RP1=0, select bank0
  1653  000B  087F               	movf	btemp+1,w
  1654  000C  00F6               	movwf	??_isr+4
  1655  000D  120A  118A  2819   	ljmp	_isr
  1656                           
  1657                           	psect	text3
  1658  02FB                     __ptext3:	
  1659 ;; *************** function _servo4_5 *****************
  1660 ;; Defined at:
  1661 ;;		line 434 in file "pro2.c"
  1662 ;; Parameters:    Size  Location     Type
  1663 ;;		None
  1664 ;; Auto vars:     Size  Location     Type
  1665 ;;		None
  1666 ;; Return value:  Size  Location     Type
  1667 ;;                  1    wreg      void 
  1668 ;; Registers used:
  1669 ;;		wreg
  1670 ;; Tracked objects:
  1671 ;;		On entry : 0/0
  1672 ;;		On exit  : 0/0
  1673 ;;		Unchanged: 0/0
  1674 ;; Data sizes:     COMMON   BANK0   BANK1   BANK3   BANK2
  1675 ;;      Params:         0       0       0       0       0
  1676 ;;      Locals:         0       0       0       0       0
  1677 ;;      Temps:          2       0       0       0       0
  1678 ;;      Totals:         2       0       0       0       0
  1679 ;;Total ram usage:        2 bytes
  1680 ;; Hardware stack levels used:    1
  1681 ;; This function calls:
  1682 ;;		Nothing
  1683 ;; This function is called by:
  1684 ;;		_isr
  1685 ;; This function uses a non-reentrant model
  1686 ;;
  1687                           
  1688                           
  1689                           ;psect for function _servo4_5
  1690  02FB                     _servo4_5:
  1691  02FB                     i1l916:	
  1692                           ;incstack = 0
  1693                           ; Regs used in _servo4_5: [wreg]
  1694                           
  1695                           
  1696                           ;pro2.c: 436:             PORTBbits.RB3 = 1;
  1697  02FB  1283               	bcf	3,5	;RP0=0, select bank0
  1698  02FC  1303               	bcf	3,6	;RP1=0, select bank0
  1699  02FD  1586               	bsf	6,3	;volatile
  1700  02FE                     i1l918:
  1701                           
  1702                           ;pro2.c: 437:             _delay((unsigned long)((2)*(8000000/4000.0)));
  1703  02FE  3006               	movlw	6
  1704  02FF  00F1               	movwf	??_servo4_5+1
  1705  0300  3030               	movlw	48
  1706  0301  00F0               	movwf	??_servo4_5
  1707  0302                     u44_27:
  1708  0302  0BF0               	decfsz	??_servo4_5,f
  1709  0303  2B02               	goto	u44_27
  1710  0304  0BF1               	decfsz	??_servo4_5+1,f
  1711  0305  2B02               	goto	u44_27
  1712  0306  0000               	nop
  1713  0307                     i1l920:
  1714                           
  1715                           ;pro2.c: 438:             PORTBbits.RB3 = 0;
  1716  0307  1283               	bcf	3,5	;RP0=0, select bank0
  1717  0308  1303               	bcf	3,6	;RP1=0, select bank0
  1718  0309  1186               	bcf	6,3	;volatile
  1719                           
  1720                           ;pro2.c: 439:             _delay((unsigned long)((17)*(8000000/4000.0)));
  1721  030A  302D               	movlw	45
  1722  030B  00F1               	movwf	??_servo4_5+1
  1723  030C  3026               	movlw	38
  1724  030D  00F0               	movwf	??_servo4_5
  1725  030E                     u45_27:
  1726  030E  0BF0               	decfsz	??_servo4_5,f
  1727  030F  2B0E               	goto	u45_27
  1728  0310  0BF1               	decfsz	??_servo4_5+1,f
  1729  0311  2B0E               	goto	u45_27
  1730  0312  0000               	nop
  1731  0313                     i1l210:
  1732  0313  0008               	return
  1733  0314                     __end_of_servo4_5:
  1734                           
  1735                           	psect	text4
  1736  0314                     __ptext4:	
  1737 ;; *************** function _servo4_4 *****************
  1738 ;; Defined at:
  1739 ;;		line 427 in file "pro2.c"
  1740 ;; Parameters:    Size  Location     Type
  1741 ;;		None
  1742 ;; Auto vars:     Size  Location     Type
  1743 ;;		None
  1744 ;; Return value:  Size  Location     Type
  1745 ;;                  1    wreg      void 
  1746 ;; Registers used:
  1747 ;;		wreg
  1748 ;; Tracked objects:
  1749 ;;		On entry : 0/0
  1750 ;;		On exit  : 0/0
  1751 ;;		Unchanged: 0/0
  1752 ;; Data sizes:     COMMON   BANK0   BANK1   BANK3   BANK2
  1753 ;;      Params:         0       0       0       0       0
  1754 ;;      Locals:         0       0       0       0       0
  1755 ;;      Temps:          2       0       0       0       0
  1756 ;;      Totals:         2       0       0       0       0
  1757 ;;Total ram usage:        2 bytes
  1758 ;; Hardware stack levels used:    1
  1759 ;; This function calls:
  1760 ;;		Nothing
  1761 ;; This function is called by:
  1762 ;;		_isr
  1763 ;; This function uses a non-reentrant model
  1764 ;;
  1765                           
  1766                           
  1767                           ;psect for function _servo4_4
  1768  0314                     _servo4_4:
  1769  0314                     i1l910:	
  1770                           ;incstack = 0
  1771                           ; Regs used in _servo4_4: [wreg]
  1772                           
  1773                           
  1774                           ;pro2.c: 429:             PORTBbits.RB3 = 1;
  1775  0314  1283               	bcf	3,5	;RP0=0, select bank0
  1776  0315  1303               	bcf	3,6	;RP1=0, select bank0
  1777  0316  1586               	bsf	6,3	;volatile
  1778  0317                     i1l912:
  1779                           
  1780                           ;pro2.c: 430:             _delay((unsigned long)((1.75)*(8000000/4000.0)));
  1781  0317  3005               	movlw	5
  1782  0318  00F1               	movwf	??_servo4_4+1
  1783  0319  308A               	movlw	138
  1784  031A  00F0               	movwf	??_servo4_4
  1785  031B                     u46_27:
  1786  031B  0BF0               	decfsz	??_servo4_4,f
  1787  031C  2B1B               	goto	u46_27
  1788  031D  0BF1               	decfsz	??_servo4_4+1,f
  1789  031E  2B1B               	goto	u46_27
  1790  031F  0000               	nop
  1791  0320                     i1l914:
  1792                           
  1793                           ;pro2.c: 431:             PORTBbits.RB3 = 0;
  1794  0320  1283               	bcf	3,5	;RP0=0, select bank0
  1795  0321  1303               	bcf	3,6	;RP1=0, select bank0
  1796  0322  1186               	bcf	6,3	;volatile
  1797                           
  1798                           ;pro2.c: 432:             _delay((unsigned long)((18.25)*(8000000/4000.0)));
  1799  0323  3030               	movlw	48
  1800  0324  00F1               	movwf	??_servo4_4+1
  1801  0325  3065               	movlw	101
  1802  0326  00F0               	movwf	??_servo4_4
  1803  0327                     u47_27:
  1804  0327  0BF0               	decfsz	??_servo4_4,f
  1805  0328  2B27               	goto	u47_27
  1806  0329  0BF1               	decfsz	??_servo4_4+1,f
  1807  032A  2B27               	goto	u47_27
  1808  032B  2B2C               	nop2
  1809  032C                     i1l207:
  1810  032C  0008               	return
  1811  032D                     __end_of_servo4_4:
  1812                           
  1813                           	psect	text5
  1814  032D                     __ptext5:	
  1815 ;; *************** function _servo4_3 *****************
  1816 ;; Defined at:
  1817 ;;		line 420 in file "pro2.c"
  1818 ;; Parameters:    Size  Location     Type
  1819 ;;		None
  1820 ;; Auto vars:     Size  Location     Type
  1821 ;;		None
  1822 ;; Return value:  Size  Location     Type
  1823 ;;                  1    wreg      void 
  1824 ;; Registers used:
  1825 ;;		wreg
  1826 ;; Tracked objects:
  1827 ;;		On entry : 0/0
  1828 ;;		On exit  : 0/0
  1829 ;;		Unchanged: 0/0
  1830 ;; Data sizes:     COMMON   BANK0   BANK1   BANK3   BANK2
  1831 ;;      Params:         0       0       0       0       0
  1832 ;;      Locals:         0       0       0       0       0
  1833 ;;      Temps:          2       0       0       0       0
  1834 ;;      Totals:         2       0       0       0       0
  1835 ;;Total ram usage:        2 bytes
  1836 ;; Hardware stack levels used:    1
  1837 ;; This function calls:
  1838 ;;		Nothing
  1839 ;; This function is called by:
  1840 ;;		_isr
  1841 ;; This function uses a non-reentrant model
  1842 ;;
  1843                           
  1844                           
  1845                           ;psect for function _servo4_3
  1846  032D                     _servo4_3:
  1847  032D                     i1l904:	
  1848                           ;incstack = 0
  1849                           ; Regs used in _servo4_3: [wreg]
  1850                           
  1851                           
  1852                           ;pro2.c: 422:             PORTBbits.RB3 = 1;
  1853  032D  1283               	bcf	3,5	;RP0=0, select bank0
  1854  032E  1303               	bcf	3,6	;RP1=0, select bank0
  1855  032F  1586               	bsf	6,3	;volatile
  1856  0330                     i1l906:
  1857                           
  1858                           ;pro2.c: 423:             _delay((unsigned long)((1.5)*(8000000/4000.0)));
  1859  0330  3004               	movlw	4
  1860  0331  00F1               	movwf	??_servo4_3+1
  1861  0332  30E4               	movlw	228
  1862  0333  00F0               	movwf	??_servo4_3
  1863  0334                     u48_27:
  1864  0334  0BF0               	decfsz	??_servo4_3,f
  1865  0335  2B34               	goto	u48_27
  1866  0336  0BF1               	decfsz	??_servo4_3+1,f
  1867  0337  2B34               	goto	u48_27
  1868  0338  0000               	nop
  1869  0339                     i1l908:
  1870                           
  1871                           ;pro2.c: 424:             PORTBbits.RB3 = 0;
  1872  0339  1283               	bcf	3,5	;RP0=0, select bank0
  1873  033A  1303               	bcf	3,6	;RP1=0, select bank0
  1874  033B  1186               	bcf	6,3	;volatile
  1875                           
  1876                           ;pro2.c: 425:             _delay((unsigned long)((18.5)*(8000000/4000.0)));
  1877  033C  3031               	movlw	49
  1878  033D  00F1               	movwf	??_servo4_3+1
  1879  033E  300B               	movlw	11
  1880  033F  00F0               	movwf	??_servo4_3
  1881  0340                     u49_27:
  1882  0340  0BF0               	decfsz	??_servo4_3,f
  1883  0341  2B40               	goto	u49_27
  1884  0342  0BF1               	decfsz	??_servo4_3+1,f
  1885  0343  2B40               	goto	u49_27
  1886  0344  2B45               	nop2
  1887  0345                     i1l204:
  1888  0345  0008               	return
  1889  0346                     __end_of_servo4_3:
  1890                           
  1891                           	psect	text6
  1892  0346                     __ptext6:	
  1893 ;; *************** function _servo4_2 *****************
  1894 ;; Defined at:
  1895 ;;		line 413 in file "pro2.c"
  1896 ;; Parameters:    Size  Location     Type
  1897 ;;		None
  1898 ;; Auto vars:     Size  Location     Type
  1899 ;;		None
  1900 ;; Return value:  Size  Location     Type
  1901 ;;                  1    wreg      void 
  1902 ;; Registers used:
  1903 ;;		wreg
  1904 ;; Tracked objects:
  1905 ;;		On entry : 0/0
  1906 ;;		On exit  : 0/0
  1907 ;;		Unchanged: 0/0
  1908 ;; Data sizes:     COMMON   BANK0   BANK1   BANK3   BANK2
  1909 ;;      Params:         0       0       0       0       0
  1910 ;;      Locals:         0       0       0       0       0
  1911 ;;      Temps:          2       0       0       0       0
  1912 ;;      Totals:         2       0       0       0       0
  1913 ;;Total ram usage:        2 bytes
  1914 ;; Hardware stack levels used:    1
  1915 ;; This function calls:
  1916 ;;		Nothing
  1917 ;; This function is called by:
  1918 ;;		_isr
  1919 ;; This function uses a non-reentrant model
  1920 ;;
  1921                           
  1922                           
  1923                           ;psect for function _servo4_2
  1924  0346                     _servo4_2:
  1925  0346                     i1l898:	
  1926                           ;incstack = 0
  1927                           ; Regs used in _servo4_2: [wreg]
  1928                           
  1929                           
  1930                           ;pro2.c: 415:             PORTBbits.RB3 = 1;
  1931  0346  1283               	bcf	3,5	;RP0=0, select bank0
  1932  0347  1303               	bcf	3,6	;RP1=0, select bank0
  1933  0348  1586               	bsf	6,3	;volatile
  1934  0349                     i1l900:
  1935                           
  1936                           ;pro2.c: 416:             _delay((unsigned long)((1.25)*(8000000/4000.0)));
  1937  0349  3004               	movlw	4
  1938  034A  00F1               	movwf	??_servo4_2+1
  1939  034B  303D               	movlw	61
  1940  034C  00F0               	movwf	??_servo4_2
  1941  034D                     u50_27:
  1942  034D  0BF0               	decfsz	??_servo4_2,f
  1943  034E  2B4D               	goto	u50_27
  1944  034F  0BF1               	decfsz	??_servo4_2+1,f
  1945  0350  2B4D               	goto	u50_27
  1946  0351  2B52               	nop2
  1947  0352                     i1l902:
  1948                           
  1949                           ;pro2.c: 417:             PORTBbits.RB3 = 0;
  1950  0352  1283               	bcf	3,5	;RP0=0, select bank0
  1951  0353  1303               	bcf	3,6	;RP1=0, select bank0
  1952  0354  1186               	bcf	6,3	;volatile
  1953                           
  1954                           ;pro2.c: 418:             _delay((unsigned long)((18.75)*(8000000/4000.0)));
  1955  0355  3031               	movlw	49
  1956  0356  00F1               	movwf	??_servo4_2+1
  1957  0357  30B2               	movlw	178
  1958  0358  00F0               	movwf	??_servo4_2
  1959  0359                     u51_27:
  1960  0359  0BF0               	decfsz	??_servo4_2,f
  1961  035A  2B59               	goto	u51_27
  1962  035B  0BF1               	decfsz	??_servo4_2+1,f
  1963  035C  2B59               	goto	u51_27
  1964  035D  0000               	nop
  1965  035E                     i1l201:
  1966  035E  0008               	return
  1967  035F                     __end_of_servo4_2:
  1968                           
  1969                           	psect	text7
  1970  035F                     __ptext7:	
  1971 ;; *************** function _servo4 *****************
  1972 ;; Defined at:
  1973 ;;		line 406 in file "pro2.c"
  1974 ;; Parameters:    Size  Location     Type
  1975 ;;		None
  1976 ;; Auto vars:     Size  Location     Type
  1977 ;;		None
  1978 ;; Return value:  Size  Location     Type
  1979 ;;                  1    wreg      void 
  1980 ;; Registers used:
  1981 ;;		wreg
  1982 ;; Tracked objects:
  1983 ;;		On entry : 0/0
  1984 ;;		On exit  : 0/0
  1985 ;;		Unchanged: 0/0
  1986 ;; Data sizes:     COMMON   BANK0   BANK1   BANK3   BANK2
  1987 ;;      Params:         0       0       0       0       0
  1988 ;;      Locals:         0       0       0       0       0
  1989 ;;      Temps:          2       0       0       0       0
  1990 ;;      Totals:         2       0       0       0       0
  1991 ;;Total ram usage:        2 bytes
  1992 ;; Hardware stack levels used:    1
  1993 ;; This function calls:
  1994 ;;		Nothing
  1995 ;; This function is called by:
  1996 ;;		_isr
  1997 ;; This function uses a non-reentrant model
  1998 ;;
  1999                           
  2000                           
  2001                           ;psect for function _servo4
  2002  035F                     _servo4:
  2003  035F                     i1l892:	
  2004                           ;incstack = 0
  2005                           ; Regs used in _servo4: [wreg]
  2006                           
  2007                           
  2008                           ;pro2.c: 408:             PORTBbits.RB3 = 1;
  2009  035F  1283               	bcf	3,5	;RP0=0, select bank0
  2010  0360  1303               	bcf	3,6	;RP1=0, select bank0
  2011  0361  1586               	bsf	6,3	;volatile
  2012  0362                     i1l894:
  2013                           
  2014                           ;pro2.c: 409:             _delay((unsigned long)((0.7)*(8000000/4000.0)));
  2015  0362  30C7               	movlw	199
  2016  0363  00F0               	movwf	??_servo4
  2017  0364                     u52_27:
  2018  0364  2B65               	nop2
  2019  0365  2B66               	nop2
  2020  0366  0BF0               	decfsz	??_servo4,f
  2021  0367  2B64               	goto	u52_27
  2022  0368  2B69               	nop2
  2023  0369  2B6A               	nop2
  2024  036A  2B6B               	nop2
  2025  036B                     i1l896:
  2026                           
  2027                           ;pro2.c: 410:             PORTBbits.RB3 = 0;
  2028  036B  1283               	bcf	3,5	;RP0=0, select bank0
  2029  036C  1303               	bcf	3,6	;RP1=0, select bank0
  2030  036D  1186               	bcf	6,3	;volatile
  2031                           
  2032                           ;pro2.c: 411:             _delay((unsigned long)((19.3)*(8000000/4000.0)));
  2033  036E  3033               	movlw	51
  2034  036F  00F1               	movwf	??_servo4+1
  2035  0370  301F               	movlw	31
  2036  0371  00F0               	movwf	??_servo4
  2037  0372                     u53_27:
  2038  0372  0BF0               	decfsz	??_servo4,f
  2039  0373  2B72               	goto	u53_27
  2040  0374  0BF1               	decfsz	??_servo4+1,f
  2041  0375  2B72               	goto	u53_27
  2042  0376  2B77               	nop2
  2043  0377                     i1l198:
  2044  0377  0008               	return
  2045  0378                     __end_of_servo4:
  2046                           
  2047                           	psect	text8
  2048  0378                     __ptext8:	
  2049 ;; *************** function _servo3_5 *****************
  2050 ;; Defined at:
  2051 ;;		line 398 in file "pro2.c"
  2052 ;; Parameters:    Size  Location     Type
  2053 ;;		None
  2054 ;; Auto vars:     Size  Location     Type
  2055 ;;		None
  2056 ;; Return value:  Size  Location     Type
  2057 ;;                  1    wreg      void 
  2058 ;; Registers used:
  2059 ;;		wreg
  2060 ;; Tracked objects:
  2061 ;;		On entry : 0/0
  2062 ;;		On exit  : 0/0
  2063 ;;		Unchanged: 0/0
  2064 ;; Data sizes:     COMMON   BANK0   BANK1   BANK3   BANK2
  2065 ;;      Params:         0       0       0       0       0
  2066 ;;      Locals:         0       0       0       0       0
  2067 ;;      Temps:          2       0       0       0       0
  2068 ;;      Totals:         2       0       0       0       0
  2069 ;;Total ram usage:        2 bytes
  2070 ;; Hardware stack levels used:    1
  2071 ;; This function calls:
  2072 ;;		Nothing
  2073 ;; This function is called by:
  2074 ;;		_isr
  2075 ;; This function uses a non-reentrant model
  2076 ;;
  2077                           
  2078                           
  2079                           ;psect for function _servo3_5
  2080  0378                     _servo3_5:
  2081  0378                     i1l886:	
  2082                           ;incstack = 0
  2083                           ; Regs used in _servo3_5: [wreg]
  2084                           
  2085                           
  2086                           ;pro2.c: 400:             PORTBbits.RB2 = 1;
  2087  0378  1283               	bcf	3,5	;RP0=0, select bank0
  2088  0379  1303               	bcf	3,6	;RP1=0, select bank0
  2089  037A  1506               	bsf	6,2	;volatile
  2090  037B                     i1l888:
  2091                           
  2092                           ;pro2.c: 401:             _delay((unsigned long)((2)*(8000000/4000.0)));
  2093  037B  3006               	movlw	6
  2094  037C  00F1               	movwf	??_servo3_5+1
  2095  037D  3030               	movlw	48
  2096  037E  00F0               	movwf	??_servo3_5
  2097  037F                     u54_27:
  2098  037F  0BF0               	decfsz	??_servo3_5,f
  2099  0380  2B7F               	goto	u54_27
  2100  0381  0BF1               	decfsz	??_servo3_5+1,f
  2101  0382  2B7F               	goto	u54_27
  2102  0383  0000               	nop
  2103  0384                     i1l890:
  2104                           
  2105                           ;pro2.c: 402:             PORTBbits.RB2 = 0;
  2106  0384  1283               	bcf	3,5	;RP0=0, select bank0
  2107  0385  1303               	bcf	3,6	;RP1=0, select bank0
  2108  0386  1106               	bcf	6,2	;volatile
  2109                           
  2110                           ;pro2.c: 403:             _delay((unsigned long)((17)*(8000000/4000.0)));
  2111  0387  302D               	movlw	45
  2112  0388  00F1               	movwf	??_servo3_5+1
  2113  0389  3026               	movlw	38
  2114  038A  00F0               	movwf	??_servo3_5
  2115  038B                     u55_27:
  2116  038B  0BF0               	decfsz	??_servo3_5,f
  2117  038C  2B8B               	goto	u55_27
  2118  038D  0BF1               	decfsz	??_servo3_5+1,f
  2119  038E  2B8B               	goto	u55_27
  2120  038F  0000               	nop
  2121  0390                     i1l195:
  2122  0390  0008               	return
  2123  0391                     __end_of_servo3_5:
  2124                           
  2125                           	psect	text9
  2126  0391                     __ptext9:	
  2127 ;; *************** function _servo3_4 *****************
  2128 ;; Defined at:
  2129 ;;		line 391 in file "pro2.c"
  2130 ;; Parameters:    Size  Location     Type
  2131 ;;		None
  2132 ;; Auto vars:     Size  Location     Type
  2133 ;;		None
  2134 ;; Return value:  Size  Location     Type
  2135 ;;                  1    wreg      void 
  2136 ;; Registers used:
  2137 ;;		wreg
  2138 ;; Tracked objects:
  2139 ;;		On entry : 0/0
  2140 ;;		On exit  : 0/0
  2141 ;;		Unchanged: 0/0
  2142 ;; Data sizes:     COMMON   BANK0   BANK1   BANK3   BANK2
  2143 ;;      Params:         0       0       0       0       0
  2144 ;;      Locals:         0       0       0       0       0
  2145 ;;      Temps:          2       0       0       0       0
  2146 ;;      Totals:         2       0       0       0       0
  2147 ;;Total ram usage:        2 bytes
  2148 ;; Hardware stack levels used:    1
  2149 ;; This function calls:
  2150 ;;		Nothing
  2151 ;; This function is called by:
  2152 ;;		_isr
  2153 ;; This function uses a non-reentrant model
  2154 ;;
  2155                           
  2156                           
  2157                           ;psect for function _servo3_4
  2158  0391                     _servo3_4:
  2159  0391                     i1l880:	
  2160                           ;incstack = 0
  2161                           ; Regs used in _servo3_4: [wreg]
  2162                           
  2163                           
  2164                           ;pro2.c: 393:             PORTBbits.RB2 = 1;
  2165  0391  1283               	bcf	3,5	;RP0=0, select bank0
  2166  0392  1303               	bcf	3,6	;RP1=0, select bank0
  2167  0393  1506               	bsf	6,2	;volatile
  2168  0394                     i1l882:
  2169                           
  2170                           ;pro2.c: 394:             _delay((unsigned long)((1.75)*(8000000/4000.0)));
  2171  0394  3005               	movlw	5
  2172  0395  00F1               	movwf	??_servo3_4+1
  2173  0396  308A               	movlw	138
  2174  0397  00F0               	movwf	??_servo3_4
  2175  0398                     u56_27:
  2176  0398  0BF0               	decfsz	??_servo3_4,f
  2177  0399  2B98               	goto	u56_27
  2178  039A  0BF1               	decfsz	??_servo3_4+1,f
  2179  039B  2B98               	goto	u56_27
  2180  039C  0000               	nop
  2181  039D                     i1l884:
  2182                           
  2183                           ;pro2.c: 395:             PORTBbits.RB2 = 0;
  2184  039D  1283               	bcf	3,5	;RP0=0, select bank0
  2185  039E  1303               	bcf	3,6	;RP1=0, select bank0
  2186  039F  1106               	bcf	6,2	;volatile
  2187                           
  2188                           ;pro2.c: 396:             _delay((unsigned long)((18.25)*(8000000/4000.0)));
  2189  03A0  3030               	movlw	48
  2190  03A1  00F1               	movwf	??_servo3_4+1
  2191  03A2  3065               	movlw	101
  2192  03A3  00F0               	movwf	??_servo3_4
  2193  03A4                     u57_27:
  2194  03A4  0BF0               	decfsz	??_servo3_4,f
  2195  03A5  2BA4               	goto	u57_27
  2196  03A6  0BF1               	decfsz	??_servo3_4+1,f
  2197  03A7  2BA4               	goto	u57_27
  2198  03A8  2BA9               	nop2
  2199  03A9                     i1l192:
  2200  03A9  0008               	return
  2201  03AA                     __end_of_servo3_4:
  2202                           
  2203                           	psect	text10
  2204  03AA                     __ptext10:	
  2205 ;; *************** function _servo3_3 *****************
  2206 ;; Defined at:
  2207 ;;		line 384 in file "pro2.c"
  2208 ;; Parameters:    Size  Location     Type
  2209 ;;		None
  2210 ;; Auto vars:     Size  Location     Type
  2211 ;;		None
  2212 ;; Return value:  Size  Location     Type
  2213 ;;                  1    wreg      void 
  2214 ;; Registers used:
  2215 ;;		wreg
  2216 ;; Tracked objects:
  2217 ;;		On entry : 0/0
  2218 ;;		On exit  : 0/0
  2219 ;;		Unchanged: 0/0
  2220 ;; Data sizes:     COMMON   BANK0   BANK1   BANK3   BANK2
  2221 ;;      Params:         0       0       0       0       0
  2222 ;;      Locals:         0       0       0       0       0
  2223 ;;      Temps:          2       0       0       0       0
  2224 ;;      Totals:         2       0       0       0       0
  2225 ;;Total ram usage:        2 bytes
  2226 ;; Hardware stack levels used:    1
  2227 ;; This function calls:
  2228 ;;		Nothing
  2229 ;; This function is called by:
  2230 ;;		_isr
  2231 ;; This function uses a non-reentrant model
  2232 ;;
  2233                           
  2234                           
  2235                           ;psect for function _servo3_3
  2236  03AA                     _servo3_3:
  2237  03AA                     i1l874:	
  2238                           ;incstack = 0
  2239                           ; Regs used in _servo3_3: [wreg]
  2240                           
  2241                           
  2242                           ;pro2.c: 386:             PORTBbits.RB2 = 1;
  2243  03AA  1283               	bcf	3,5	;RP0=0, select bank0
  2244  03AB  1303               	bcf	3,6	;RP1=0, select bank0
  2245  03AC  1506               	bsf	6,2	;volatile
  2246  03AD                     i1l876:
  2247                           
  2248                           ;pro2.c: 387:             _delay((unsigned long)((1.5)*(8000000/4000.0)));
  2249  03AD  3004               	movlw	4
  2250  03AE  00F1               	movwf	??_servo3_3+1
  2251  03AF  30E4               	movlw	228
  2252  03B0  00F0               	movwf	??_servo3_3
  2253  03B1                     u58_27:
  2254  03B1  0BF0               	decfsz	??_servo3_3,f
  2255  03B2  2BB1               	goto	u58_27
  2256  03B3  0BF1               	decfsz	??_servo3_3+1,f
  2257  03B4  2BB1               	goto	u58_27
  2258  03B5  0000               	nop
  2259  03B6                     i1l878:
  2260                           
  2261                           ;pro2.c: 388:             PORTBbits.RB2 = 0;
  2262  03B6  1283               	bcf	3,5	;RP0=0, select bank0
  2263  03B7  1303               	bcf	3,6	;RP1=0, select bank0
  2264  03B8  1106               	bcf	6,2	;volatile
  2265                           
  2266                           ;pro2.c: 389:             _delay((unsigned long)((18.5)*(8000000/4000.0)));
  2267  03B9  3031               	movlw	49
  2268  03BA  00F1               	movwf	??_servo3_3+1
  2269  03BB  300B               	movlw	11
  2270  03BC  00F0               	movwf	??_servo3_3
  2271  03BD                     u59_27:
  2272  03BD  0BF0               	decfsz	??_servo3_3,f
  2273  03BE  2BBD               	goto	u59_27
  2274  03BF  0BF1               	decfsz	??_servo3_3+1,f
  2275  03C0  2BBD               	goto	u59_27
  2276  03C1  2BC2               	nop2
  2277  03C2                     i1l189:
  2278  03C2  0008               	return
  2279  03C3                     __end_of_servo3_3:
  2280                           
  2281                           	psect	text11
  2282  03C3                     __ptext11:	
  2283 ;; *************** function _servo3_2 *****************
  2284 ;; Defined at:
  2285 ;;		line 377 in file "pro2.c"
  2286 ;; Parameters:    Size  Location     Type
  2287 ;;		None
  2288 ;; Auto vars:     Size  Location     Type
  2289 ;;		None
  2290 ;; Return value:  Size  Location     Type
  2291 ;;                  1    wreg      void 
  2292 ;; Registers used:
  2293 ;;		wreg
  2294 ;; Tracked objects:
  2295 ;;		On entry : 0/0
  2296 ;;		On exit  : 0/0
  2297 ;;		Unchanged: 0/0
  2298 ;; Data sizes:     COMMON   BANK0   BANK1   BANK3   BANK2
  2299 ;;      Params:         0       0       0       0       0
  2300 ;;      Locals:         0       0       0       0       0
  2301 ;;      Temps:          2       0       0       0       0
  2302 ;;      Totals:         2       0       0       0       0
  2303 ;;Total ram usage:        2 bytes
  2304 ;; Hardware stack levels used:    1
  2305 ;; This function calls:
  2306 ;;		Nothing
  2307 ;; This function is called by:
  2308 ;;		_isr
  2309 ;; This function uses a non-reentrant model
  2310 ;;
  2311                           
  2312                           
  2313                           ;psect for function _servo3_2
  2314  03C3                     _servo3_2:
  2315  03C3                     i1l868:	
  2316                           ;incstack = 0
  2317                           ; Regs used in _servo3_2: [wreg]
  2318                           
  2319                           
  2320                           ;pro2.c: 379:             PORTBbits.RB2 = 1;
  2321  03C3  1283               	bcf	3,5	;RP0=0, select bank0
  2322  03C4  1303               	bcf	3,6	;RP1=0, select bank0
  2323  03C5  1506               	bsf	6,2	;volatile
  2324  03C6                     i1l870:
  2325                           
  2326                           ;pro2.c: 380:             _delay((unsigned long)((1.25)*(8000000/4000.0)));
  2327  03C6  3004               	movlw	4
  2328  03C7  00F1               	movwf	??_servo3_2+1
  2329  03C8  303D               	movlw	61
  2330  03C9  00F0               	movwf	??_servo3_2
  2331  03CA                     u60_27:
  2332  03CA  0BF0               	decfsz	??_servo3_2,f
  2333  03CB  2BCA               	goto	u60_27
  2334  03CC  0BF1               	decfsz	??_servo3_2+1,f
  2335  03CD  2BCA               	goto	u60_27
  2336  03CE  2BCF               	nop2
  2337  03CF                     i1l872:
  2338                           
  2339                           ;pro2.c: 381:             PORTBbits.RB2 = 0;
  2340  03CF  1283               	bcf	3,5	;RP0=0, select bank0
  2341  03D0  1303               	bcf	3,6	;RP1=0, select bank0
  2342  03D1  1106               	bcf	6,2	;volatile
  2343                           
  2344                           ;pro2.c: 382:             _delay((unsigned long)((18.75)*(8000000/4000.0)));
  2345  03D2  3031               	movlw	49
  2346  03D3  00F1               	movwf	??_servo3_2+1
  2347  03D4  30B2               	movlw	178
  2348  03D5  00F0               	movwf	??_servo3_2
  2349  03D6                     u61_27:
  2350  03D6  0BF0               	decfsz	??_servo3_2,f
  2351  03D7  2BD6               	goto	u61_27
  2352  03D8  0BF1               	decfsz	??_servo3_2+1,f
  2353  03D9  2BD6               	goto	u61_27
  2354  03DA  0000               	nop
  2355  03DB                     i1l186:
  2356  03DB  0008               	return
  2357  03DC                     __end_of_servo3_2:
  2358                           
  2359                           	psect	text12
  2360  03DC                     __ptext12:	
  2361 ;; *************** function _servo3 *****************
  2362 ;; Defined at:
  2363 ;;		line 370 in file "pro2.c"
  2364 ;; Parameters:    Size  Location     Type
  2365 ;;		None
  2366 ;; Auto vars:     Size  Location     Type
  2367 ;;		None
  2368 ;; Return value:  Size  Location     Type
  2369 ;;                  1    wreg      void 
  2370 ;; Registers used:
  2371 ;;		wreg
  2372 ;; Tracked objects:
  2373 ;;		On entry : 0/0
  2374 ;;		On exit  : 0/0
  2375 ;;		Unchanged: 0/0
  2376 ;; Data sizes:     COMMON   BANK0   BANK1   BANK3   BANK2
  2377 ;;      Params:         0       0       0       0       0
  2378 ;;      Locals:         0       0       0       0       0
  2379 ;;      Temps:          2       0       0       0       0
  2380 ;;      Totals:         2       0       0       0       0
  2381 ;;Total ram usage:        2 bytes
  2382 ;; Hardware stack levels used:    1
  2383 ;; This function calls:
  2384 ;;		Nothing
  2385 ;; This function is called by:
  2386 ;;		_isr
  2387 ;; This function uses a non-reentrant model
  2388 ;;
  2389                           
  2390                           
  2391                           ;psect for function _servo3
  2392  03DC                     _servo3:
  2393  03DC                     i1l862:	
  2394                           ;incstack = 0
  2395                           ; Regs used in _servo3: [wreg]
  2396                           
  2397                           
  2398                           ;pro2.c: 372:             PORTBbits.RB2 = 1;
  2399  03DC  1283               	bcf	3,5	;RP0=0, select bank0
  2400  03DD  1303               	bcf	3,6	;RP1=0, select bank0
  2401  03DE  1506               	bsf	6,2	;volatile
  2402  03DF                     i1l864:
  2403                           
  2404                           ;pro2.c: 373:             _delay((unsigned long)((0.7)*(8000000/4000.0)));
  2405  03DF  30C7               	movlw	199
  2406  03E0  00F0               	movwf	??_servo3
  2407  03E1                     u62_27:
  2408  03E1  2BE2               	nop2
  2409  03E2  2BE3               	nop2
  2410  03E3  0BF0               	decfsz	??_servo3,f
  2411  03E4  2BE1               	goto	u62_27
  2412  03E5  2BE6               	nop2
  2413  03E6  2BE7               	nop2
  2414  03E7  2BE8               	nop2
  2415  03E8                     i1l866:
  2416                           
  2417                           ;pro2.c: 374:             PORTBbits.RB2 = 0;
  2418  03E8  1283               	bcf	3,5	;RP0=0, select bank0
  2419  03E9  1303               	bcf	3,6	;RP1=0, select bank0
  2420  03EA  1106               	bcf	6,2	;volatile
  2421                           
  2422                           ;pro2.c: 375:             _delay((unsigned long)((19.3)*(8000000/4000.0)));
  2423  03EB  3033               	movlw	51
  2424  03EC  00F1               	movwf	??_servo3+1
  2425  03ED  301F               	movlw	31
  2426  03EE  00F0               	movwf	??_servo3
  2427  03EF                     u63_27:
  2428  03EF  0BF0               	decfsz	??_servo3,f
  2429  03F0  2BEF               	goto	u63_27
  2430  03F1  0BF1               	decfsz	??_servo3+1,f
  2431  03F2  2BEF               	goto	u63_27
  2432  03F3  2BF4               	nop2
  2433  03F4                     i1l183:
  2434  03F4  0008               	return
  2435  03F5                     __end_of_servo3:
  2436                           
  2437                           	psect	text13
  2438  03F5                     __ptext13:	
  2439 ;; *************** function _servo2_5 *****************
  2440 ;; Defined at:
  2441 ;;		line 362 in file "pro2.c"
  2442 ;; Parameters:    Size  Location     Type
  2443 ;;		None
  2444 ;; Auto vars:     Size  Location     Type
  2445 ;;		None
  2446 ;; Return value:  Size  Location     Type
  2447 ;;                  1    wreg      void 
  2448 ;; Registers used:
  2449 ;;		wreg
  2450 ;; Tracked objects:
  2451 ;;		On entry : 0/0
  2452 ;;		On exit  : 0/0
  2453 ;;		Unchanged: 0/0
  2454 ;; Data sizes:     COMMON   BANK0   BANK1   BANK3   BANK2
  2455 ;;      Params:         0       0       0       0       0
  2456 ;;      Locals:         0       0       0       0       0
  2457 ;;      Temps:          2       0       0       0       0
  2458 ;;      Totals:         2       0       0       0       0
  2459 ;;Total ram usage:        2 bytes
  2460 ;; Hardware stack levels used:    1
  2461 ;; This function calls:
  2462 ;;		Nothing
  2463 ;; This function is called by:
  2464 ;;		_isr
  2465 ;; This function uses a non-reentrant model
  2466 ;;
  2467                           
  2468                           
  2469                           ;psect for function _servo2_5
  2470  03F5                     _servo2_5:
  2471  03F5                     i1l856:	
  2472                           ;incstack = 0
  2473                           ; Regs used in _servo2_5: [wreg]
  2474                           
  2475                           
  2476                           ;pro2.c: 364:             PORTBbits.RB1 = 1;
  2477  03F5  1283               	bcf	3,5	;RP0=0, select bank0
  2478  03F6  1303               	bcf	3,6	;RP1=0, select bank0
  2479  03F7  1486               	bsf	6,1	;volatile
  2480  03F8                     i1l858:
  2481                           
  2482                           ;pro2.c: 365:             _delay((unsigned long)((2)*(8000000/4000.0)));
  2483  03F8  3006               	movlw	6
  2484  03F9  00F1               	movwf	??_servo2_5+1
  2485  03FA  3030               	movlw	48
  2486  03FB  00F0               	movwf	??_servo2_5
  2487  03FC                     u64_27:
  2488  03FC  0BF0               	decfsz	??_servo2_5,f
  2489  03FD  2BFC               	goto	u64_27
  2490  03FE  0BF1               	decfsz	??_servo2_5+1,f
  2491  03FF  2BFC               	goto	u64_27
  2492  0400  0000               	nop
  2493  0401                     i1l860:
  2494                           
  2495                           ;pro2.c: 366:             PORTBbits.RB1 = 0;
  2496  0401  1283               	bcf	3,5	;RP0=0, select bank0
  2497  0402  1303               	bcf	3,6	;RP1=0, select bank0
  2498  0403  1086               	bcf	6,1	;volatile
  2499                           
  2500                           ;pro2.c: 367:             _delay((unsigned long)((17)*(8000000/4000.0)));
  2501  0404  302D               	movlw	45
  2502  0405  00F1               	movwf	??_servo2_5+1
  2503  0406  3026               	movlw	38
  2504  0407  00F0               	movwf	??_servo2_5
  2505  0408                     u65_27:
  2506  0408  0BF0               	decfsz	??_servo2_5,f
  2507  0409  2C08               	goto	u65_27
  2508  040A  0BF1               	decfsz	??_servo2_5+1,f
  2509  040B  2C08               	goto	u65_27
  2510  040C  0000               	nop
  2511  040D                     i1l180:
  2512  040D  0008               	return
  2513  040E                     __end_of_servo2_5:
  2514                           
  2515                           	psect	text14
  2516  040E                     __ptext14:	
  2517 ;; *************** function _servo2_4 *****************
  2518 ;; Defined at:
  2519 ;;		line 355 in file "pro2.c"
  2520 ;; Parameters:    Size  Location     Type
  2521 ;;		None
  2522 ;; Auto vars:     Size  Location     Type
  2523 ;;		None
  2524 ;; Return value:  Size  Location     Type
  2525 ;;                  1    wreg      void 
  2526 ;; Registers used:
  2527 ;;		wreg
  2528 ;; Tracked objects:
  2529 ;;		On entry : 0/0
  2530 ;;		On exit  : 0/0
  2531 ;;		Unchanged: 0/0
  2532 ;; Data sizes:     COMMON   BANK0   BANK1   BANK3   BANK2
  2533 ;;      Params:         0       0       0       0       0
  2534 ;;      Locals:         0       0       0       0       0
  2535 ;;      Temps:          2       0       0       0       0
  2536 ;;      Totals:         2       0       0       0       0
  2537 ;;Total ram usage:        2 bytes
  2538 ;; Hardware stack levels used:    1
  2539 ;; This function calls:
  2540 ;;		Nothing
  2541 ;; This function is called by:
  2542 ;;		_isr
  2543 ;; This function uses a non-reentrant model
  2544 ;;
  2545                           
  2546                           
  2547                           ;psect for function _servo2_4
  2548  040E                     _servo2_4:
  2549  040E                     i1l850:	
  2550                           ;incstack = 0
  2551                           ; Regs used in _servo2_4: [wreg]
  2552                           
  2553                           
  2554                           ;pro2.c: 357:             PORTBbits.RB1 = 1;
  2555  040E  1283               	bcf	3,5	;RP0=0, select bank0
  2556  040F  1303               	bcf	3,6	;RP1=0, select bank0
  2557  0410  1486               	bsf	6,1	;volatile
  2558  0411                     i1l852:
  2559                           
  2560                           ;pro2.c: 358:             _delay((unsigned long)((1.75)*(8000000/4000.0)));
  2561  0411  3005               	movlw	5
  2562  0412  00F1               	movwf	??_servo2_4+1
  2563  0413  308A               	movlw	138
  2564  0414  00F0               	movwf	??_servo2_4
  2565  0415                     u66_27:
  2566  0415  0BF0               	decfsz	??_servo2_4,f
  2567  0416  2C15               	goto	u66_27
  2568  0417  0BF1               	decfsz	??_servo2_4+1,f
  2569  0418  2C15               	goto	u66_27
  2570  0419  0000               	nop
  2571  041A                     i1l854:
  2572                           
  2573                           ;pro2.c: 359:             PORTBbits.RB1 = 0;
  2574  041A  1283               	bcf	3,5	;RP0=0, select bank0
  2575  041B  1303               	bcf	3,6	;RP1=0, select bank0
  2576  041C  1086               	bcf	6,1	;volatile
  2577                           
  2578                           ;pro2.c: 360:             _delay((unsigned long)((18.25)*(8000000/4000.0)));
  2579  041D  3030               	movlw	48
  2580  041E  00F1               	movwf	??_servo2_4+1
  2581  041F  3065               	movlw	101
  2582  0420  00F0               	movwf	??_servo2_4
  2583  0421                     u67_27:
  2584  0421  0BF0               	decfsz	??_servo2_4,f
  2585  0422  2C21               	goto	u67_27
  2586  0423  0BF1               	decfsz	??_servo2_4+1,f
  2587  0424  2C21               	goto	u67_27
  2588  0425  2C26               	nop2
  2589  0426                     i1l177:
  2590  0426  0008               	return
  2591  0427                     __end_of_servo2_4:
  2592                           
  2593                           	psect	text15
  2594  0427                     __ptext15:	
  2595 ;; *************** function _servo2_3 *****************
  2596 ;; Defined at:
  2597 ;;		line 348 in file "pro2.c"
  2598 ;; Parameters:    Size  Location     Type
  2599 ;;		None
  2600 ;; Auto vars:     Size  Location     Type
  2601 ;;		None
  2602 ;; Return value:  Size  Location     Type
  2603 ;;                  1    wreg      void 
  2604 ;; Registers used:
  2605 ;;		wreg
  2606 ;; Tracked objects:
  2607 ;;		On entry : 0/0
  2608 ;;		On exit  : 0/0
  2609 ;;		Unchanged: 0/0
  2610 ;; Data sizes:     COMMON   BANK0   BANK1   BANK3   BANK2
  2611 ;;      Params:         0       0       0       0       0
  2612 ;;      Locals:         0       0       0       0       0
  2613 ;;      Temps:          2       0       0       0       0
  2614 ;;      Totals:         2       0       0       0       0
  2615 ;;Total ram usage:        2 bytes
  2616 ;; Hardware stack levels used:    1
  2617 ;; This function calls:
  2618 ;;		Nothing
  2619 ;; This function is called by:
  2620 ;;		_isr
  2621 ;; This function uses a non-reentrant model
  2622 ;;
  2623                           
  2624                           
  2625                           ;psect for function _servo2_3
  2626  0427                     _servo2_3:
  2627  0427                     i1l844:	
  2628                           ;incstack = 0
  2629                           ; Regs used in _servo2_3: [wreg]
  2630                           
  2631                           
  2632                           ;pro2.c: 350:             PORTBbits.RB1 = 1;
  2633  0427  1283               	bcf	3,5	;RP0=0, select bank0
  2634  0428  1303               	bcf	3,6	;RP1=0, select bank0
  2635  0429  1486               	bsf	6,1	;volatile
  2636  042A                     i1l846:
  2637                           
  2638                           ;pro2.c: 351:             _delay((unsigned long)((1.5)*(8000000/4000.0)));
  2639  042A  3004               	movlw	4
  2640  042B  00F1               	movwf	??_servo2_3+1
  2641  042C  30E4               	movlw	228
  2642  042D  00F0               	movwf	??_servo2_3
  2643  042E                     u68_27:
  2644  042E  0BF0               	decfsz	??_servo2_3,f
  2645  042F  2C2E               	goto	u68_27
  2646  0430  0BF1               	decfsz	??_servo2_3+1,f
  2647  0431  2C2E               	goto	u68_27
  2648  0432  0000               	nop
  2649  0433                     i1l848:
  2650                           
  2651                           ;pro2.c: 352:             PORTBbits.RB1 = 0;
  2652  0433  1283               	bcf	3,5	;RP0=0, select bank0
  2653  0434  1303               	bcf	3,6	;RP1=0, select bank0
  2654  0435  1086               	bcf	6,1	;volatile
  2655                           
  2656                           ;pro2.c: 353:             _delay((unsigned long)((18.5)*(8000000/4000.0)));
  2657  0436  3031               	movlw	49
  2658  0437  00F1               	movwf	??_servo2_3+1
  2659  0438  300B               	movlw	11
  2660  0439  00F0               	movwf	??_servo2_3
  2661  043A                     u69_27:
  2662  043A  0BF0               	decfsz	??_servo2_3,f
  2663  043B  2C3A               	goto	u69_27
  2664  043C  0BF1               	decfsz	??_servo2_3+1,f
  2665  043D  2C3A               	goto	u69_27
  2666  043E  2C3F               	nop2
  2667  043F                     i1l174:
  2668  043F  0008               	return
  2669  0440                     __end_of_servo2_3:
  2670                           
  2671                           	psect	text16
  2672  0440                     __ptext16:	
  2673 ;; *************** function _servo2_2 *****************
  2674 ;; Defined at:
  2675 ;;		line 341 in file "pro2.c"
  2676 ;; Parameters:    Size  Location     Type
  2677 ;;		None
  2678 ;; Auto vars:     Size  Location     Type
  2679 ;;		None
  2680 ;; Return value:  Size  Location     Type
  2681 ;;                  1    wreg      void 
  2682 ;; Registers used:
  2683 ;;		wreg
  2684 ;; Tracked objects:
  2685 ;;		On entry : 0/0
  2686 ;;		On exit  : 0/0
  2687 ;;		Unchanged: 0/0
  2688 ;; Data sizes:     COMMON   BANK0   BANK1   BANK3   BANK2
  2689 ;;      Params:         0       0       0       0       0
  2690 ;;      Locals:         0       0       0       0       0
  2691 ;;      Temps:          2       0       0       0       0
  2692 ;;      Totals:         2       0       0       0       0
  2693 ;;Total ram usage:        2 bytes
  2694 ;; Hardware stack levels used:    1
  2695 ;; This function calls:
  2696 ;;		Nothing
  2697 ;; This function is called by:
  2698 ;;		_isr
  2699 ;; This function uses a non-reentrant model
  2700 ;;
  2701                           
  2702                           
  2703                           ;psect for function _servo2_2
  2704  0440                     _servo2_2:
  2705  0440                     i1l838:	
  2706                           ;incstack = 0
  2707                           ; Regs used in _servo2_2: [wreg]
  2708                           
  2709                           
  2710                           ;pro2.c: 343:             PORTBbits.RB1 = 1;
  2711  0440  1283               	bcf	3,5	;RP0=0, select bank0
  2712  0441  1303               	bcf	3,6	;RP1=0, select bank0
  2713  0442  1486               	bsf	6,1	;volatile
  2714  0443                     i1l840:
  2715                           
  2716                           ;pro2.c: 344:             _delay((unsigned long)((1.25)*(8000000/4000.0)));
  2717  0443  3004               	movlw	4
  2718  0444  00F1               	movwf	??_servo2_2+1
  2719  0445  303D               	movlw	61
  2720  0446  00F0               	movwf	??_servo2_2
  2721  0447                     u70_27:
  2722  0447  0BF0               	decfsz	??_servo2_2,f
  2723  0448  2C47               	goto	u70_27
  2724  0449  0BF1               	decfsz	??_servo2_2+1,f
  2725  044A  2C47               	goto	u70_27
  2726  044B  2C4C               	nop2
  2727  044C                     i1l842:
  2728                           
  2729                           ;pro2.c: 345:             PORTBbits.RB1 = 0;
  2730  044C  1283               	bcf	3,5	;RP0=0, select bank0
  2731  044D  1303               	bcf	3,6	;RP1=0, select bank0
  2732  044E  1086               	bcf	6,1	;volatile
  2733                           
  2734                           ;pro2.c: 346:             _delay((unsigned long)((18.75)*(8000000/4000.0)));
  2735  044F  3031               	movlw	49
  2736  0450  00F1               	movwf	??_servo2_2+1
  2737  0451  30B2               	movlw	178
  2738  0452  00F0               	movwf	??_servo2_2
  2739  0453                     u71_27:
  2740  0453  0BF0               	decfsz	??_servo2_2,f
  2741  0454  2C53               	goto	u71_27
  2742  0455  0BF1               	decfsz	??_servo2_2+1,f
  2743  0456  2C53               	goto	u71_27
  2744  0457  0000               	nop
  2745  0458                     i1l171:
  2746  0458  0008               	return
  2747  0459                     __end_of_servo2_2:
  2748                           
  2749                           	psect	text17
  2750  0459                     __ptext17:	
  2751 ;; *************** function _servo2 *****************
  2752 ;; Defined at:
  2753 ;;		line 334 in file "pro2.c"
  2754 ;; Parameters:    Size  Location     Type
  2755 ;;		None
  2756 ;; Auto vars:     Size  Location     Type
  2757 ;;		None
  2758 ;; Return value:  Size  Location     Type
  2759 ;;                  1    wreg      void 
  2760 ;; Registers used:
  2761 ;;		wreg
  2762 ;; Tracked objects:
  2763 ;;		On entry : 0/0
  2764 ;;		On exit  : 0/0
  2765 ;;		Unchanged: 0/0
  2766 ;; Data sizes:     COMMON   BANK0   BANK1   BANK3   BANK2
  2767 ;;      Params:         0       0       0       0       0
  2768 ;;      Locals:         0       0       0       0       0
  2769 ;;      Temps:          2       0       0       0       0
  2770 ;;      Totals:         2       0       0       0       0
  2771 ;;Total ram usage:        2 bytes
  2772 ;; Hardware stack levels used:    1
  2773 ;; This function calls:
  2774 ;;		Nothing
  2775 ;; This function is called by:
  2776 ;;		_isr
  2777 ;; This function uses a non-reentrant model
  2778 ;;
  2779                           
  2780                           
  2781                           ;psect for function _servo2
  2782  0459                     _servo2:
  2783  0459                     i1l832:	
  2784                           ;incstack = 0
  2785                           ; Regs used in _servo2: [wreg]
  2786                           
  2787                           
  2788                           ;pro2.c: 336:             PORTBbits.RB1 = 1;
  2789  0459  1283               	bcf	3,5	;RP0=0, select bank0
  2790  045A  1303               	bcf	3,6	;RP1=0, select bank0
  2791  045B  1486               	bsf	6,1	;volatile
  2792  045C                     i1l834:
  2793                           
  2794                           ;pro2.c: 337:             _delay((unsigned long)((0.7)*(8000000/4000.0)));
  2795  045C  30C7               	movlw	199
  2796  045D  00F0               	movwf	??_servo2
  2797  045E                     u72_27:
  2798  045E  2C5F               	nop2
  2799  045F  2C60               	nop2
  2800  0460  0BF0               	decfsz	??_servo2,f
  2801  0461  2C5E               	goto	u72_27
  2802  0462  2C63               	nop2
  2803  0463  2C64               	nop2
  2804  0464  2C65               	nop2
  2805  0465                     i1l836:
  2806                           
  2807                           ;pro2.c: 338:             PORTBbits.RB1 = 0;
  2808  0465  1283               	bcf	3,5	;RP0=0, select bank0
  2809  0466  1303               	bcf	3,6	;RP1=0, select bank0
  2810  0467  1086               	bcf	6,1	;volatile
  2811                           
  2812                           ;pro2.c: 339:             _delay((unsigned long)((19.3)*(8000000/4000.0)));
  2813  0468  3033               	movlw	51
  2814  0469  00F1               	movwf	??_servo2+1
  2815  046A  301F               	movlw	31
  2816  046B  00F0               	movwf	??_servo2
  2817  046C                     u73_27:
  2818  046C  0BF0               	decfsz	??_servo2,f
  2819  046D  2C6C               	goto	u73_27
  2820  046E  0BF1               	decfsz	??_servo2+1,f
  2821  046F  2C6C               	goto	u73_27
  2822  0470  2C71               	nop2
  2823  0471                     i1l168:
  2824  0471  0008               	return
  2825  0472                     __end_of_servo2:
  2826                           
  2827                           	psect	text18
  2828  0472                     __ptext18:	
  2829 ;; *************** function _servo1_5 *****************
  2830 ;; Defined at:
  2831 ;;		line 326 in file "pro2.c"
  2832 ;; Parameters:    Size  Location     Type
  2833 ;;		None
  2834 ;; Auto vars:     Size  Location     Type
  2835 ;;		None
  2836 ;; Return value:  Size  Location     Type
  2837 ;;                  1    wreg      void 
  2838 ;; Registers used:
  2839 ;;		wreg
  2840 ;; Tracked objects:
  2841 ;;		On entry : 0/0
  2842 ;;		On exit  : 0/0
  2843 ;;		Unchanged: 0/0
  2844 ;; Data sizes:     COMMON   BANK0   BANK1   BANK3   BANK2
  2845 ;;      Params:         0       0       0       0       0
  2846 ;;      Locals:         0       0       0       0       0
  2847 ;;      Temps:          2       0       0       0       0
  2848 ;;      Totals:         2       0       0       0       0
  2849 ;;Total ram usage:        2 bytes
  2850 ;; Hardware stack levels used:    1
  2851 ;; This function calls:
  2852 ;;		Nothing
  2853 ;; This function is called by:
  2854 ;;		_isr
  2855 ;; This function uses a non-reentrant model
  2856 ;;
  2857                           
  2858                           
  2859                           ;psect for function _servo1_5
  2860  0472                     _servo1_5:
  2861  0472                     i1l826:	
  2862                           ;incstack = 0
  2863                           ; Regs used in _servo1_5: [wreg]
  2864                           
  2865                           
  2866                           ;pro2.c: 328:             PORTBbits.RB0 = 1;
  2867  0472  1283               	bcf	3,5	;RP0=0, select bank0
  2868  0473  1303               	bcf	3,6	;RP1=0, select bank0
  2869  0474  1406               	bsf	6,0	;volatile
  2870  0475                     i1l828:
  2871                           
  2872                           ;pro2.c: 329:             _delay((unsigned long)((2)*(8000000/4000.0)));
  2873  0475  3006               	movlw	6
  2874  0476  00F1               	movwf	??_servo1_5+1
  2875  0477  3030               	movlw	48
  2876  0478  00F0               	movwf	??_servo1_5
  2877  0479                     u74_27:
  2878  0479  0BF0               	decfsz	??_servo1_5,f
  2879  047A  2C79               	goto	u74_27
  2880  047B  0BF1               	decfsz	??_servo1_5+1,f
  2881  047C  2C79               	goto	u74_27
  2882  047D  0000               	nop
  2883  047E                     i1l830:
  2884                           
  2885                           ;pro2.c: 330:             PORTBbits.RB0 = 0;
  2886  047E  1283               	bcf	3,5	;RP0=0, select bank0
  2887  047F  1303               	bcf	3,6	;RP1=0, select bank0
  2888  0480  1006               	bcf	6,0	;volatile
  2889                           
  2890                           ;pro2.c: 331:             _delay((unsigned long)((17)*(8000000/4000.0)));
  2891  0481  302D               	movlw	45
  2892  0482  00F1               	movwf	??_servo1_5+1
  2893  0483  3026               	movlw	38
  2894  0484  00F0               	movwf	??_servo1_5
  2895  0485                     u75_27:
  2896  0485  0BF0               	decfsz	??_servo1_5,f
  2897  0486  2C85               	goto	u75_27
  2898  0487  0BF1               	decfsz	??_servo1_5+1,f
  2899  0488  2C85               	goto	u75_27
  2900  0489  0000               	nop
  2901  048A                     i1l165:
  2902  048A  0008               	return
  2903  048B                     __end_of_servo1_5:
  2904                           
  2905                           	psect	text19
  2906  048B                     __ptext19:	
  2907 ;; *************** function _servo1_4 *****************
  2908 ;; Defined at:
  2909 ;;		line 319 in file "pro2.c"
  2910 ;; Parameters:    Size  Location     Type
  2911 ;;		None
  2912 ;; Auto vars:     Size  Location     Type
  2913 ;;		None
  2914 ;; Return value:  Size  Location     Type
  2915 ;;                  1    wreg      void 
  2916 ;; Registers used:
  2917 ;;		wreg
  2918 ;; Tracked objects:
  2919 ;;		On entry : 0/0
  2920 ;;		On exit  : 0/0
  2921 ;;		Unchanged: 0/0
  2922 ;; Data sizes:     COMMON   BANK0   BANK1   BANK3   BANK2
  2923 ;;      Params:         0       0       0       0       0
  2924 ;;      Locals:         0       0       0       0       0
  2925 ;;      Temps:          2       0       0       0       0
  2926 ;;      Totals:         2       0       0       0       0
  2927 ;;Total ram usage:        2 bytes
  2928 ;; Hardware stack levels used:    1
  2929 ;; This function calls:
  2930 ;;		Nothing
  2931 ;; This function is called by:
  2932 ;;		_isr
  2933 ;; This function uses a non-reentrant model
  2934 ;;
  2935                           
  2936                           
  2937                           ;psect for function _servo1_4
  2938  048B                     _servo1_4:
  2939  048B                     i1l820:	
  2940                           ;incstack = 0
  2941                           ; Regs used in _servo1_4: [wreg]
  2942                           
  2943                           
  2944                           ;pro2.c: 321:             PORTBbits.RB0 = 1;
  2945  048B  1283               	bcf	3,5	;RP0=0, select bank0
  2946  048C  1303               	bcf	3,6	;RP1=0, select bank0
  2947  048D  1406               	bsf	6,0	;volatile
  2948  048E                     i1l822:
  2949                           
  2950                           ;pro2.c: 322:             _delay((unsigned long)((1.75)*(8000000/4000.0)));
  2951  048E  3005               	movlw	5
  2952  048F  00F1               	movwf	??_servo1_4+1
  2953  0490  308A               	movlw	138
  2954  0491  00F0               	movwf	??_servo1_4
  2955  0492                     u76_27:
  2956  0492  0BF0               	decfsz	??_servo1_4,f
  2957  0493  2C92               	goto	u76_27
  2958  0494  0BF1               	decfsz	??_servo1_4+1,f
  2959  0495  2C92               	goto	u76_27
  2960  0496  0000               	nop
  2961  0497                     i1l824:
  2962                           
  2963                           ;pro2.c: 323:             PORTBbits.RB0 = 0;
  2964  0497  1283               	bcf	3,5	;RP0=0, select bank0
  2965  0498  1303               	bcf	3,6	;RP1=0, select bank0
  2966  0499  1006               	bcf	6,0	;volatile
  2967                           
  2968                           ;pro2.c: 324:             _delay((unsigned long)((18.25)*(8000000/4000.0)));
  2969  049A  3030               	movlw	48
  2970  049B  00F1               	movwf	??_servo1_4+1
  2971  049C  3065               	movlw	101
  2972  049D  00F0               	movwf	??_servo1_4
  2973  049E                     u77_27:
  2974  049E  0BF0               	decfsz	??_servo1_4,f
  2975  049F  2C9E               	goto	u77_27
  2976  04A0  0BF1               	decfsz	??_servo1_4+1,f
  2977  04A1  2C9E               	goto	u77_27
  2978  04A2  2CA3               	nop2
  2979  04A3                     i1l162:
  2980  04A3  0008               	return
  2981  04A4                     __end_of_servo1_4:
  2982                           
  2983                           	psect	text20
  2984  04A4                     __ptext20:	
  2985 ;; *************** function _servo1_3 *****************
  2986 ;; Defined at:
  2987 ;;		line 312 in file "pro2.c"
  2988 ;; Parameters:    Size  Location     Type
  2989 ;;		None
  2990 ;; Auto vars:     Size  Location     Type
  2991 ;;		None
  2992 ;; Return value:  Size  Location     Type
  2993 ;;                  1    wreg      void 
  2994 ;; Registers used:
  2995 ;;		wreg
  2996 ;; Tracked objects:
  2997 ;;		On entry : 0/0
  2998 ;;		On exit  : 0/0
  2999 ;;		Unchanged: 0/0
  3000 ;; Data sizes:     COMMON   BANK0   BANK1   BANK3   BANK2
  3001 ;;      Params:         0       0       0       0       0
  3002 ;;      Locals:         0       0       0       0       0
  3003 ;;      Temps:          2       0       0       0       0
  3004 ;;      Totals:         2       0       0       0       0
  3005 ;;Total ram usage:        2 bytes
  3006 ;; Hardware stack levels used:    1
  3007 ;; This function calls:
  3008 ;;		Nothing
  3009 ;; This function is called by:
  3010 ;;		_isr
  3011 ;; This function uses a non-reentrant model
  3012 ;;
  3013                           
  3014                           
  3015                           ;psect for function _servo1_3
  3016  04A4                     _servo1_3:
  3017  04A4                     i1l814:	
  3018                           ;incstack = 0
  3019                           ; Regs used in _servo1_3: [wreg]
  3020                           
  3021                           
  3022                           ;pro2.c: 314:             PORTBbits.RB0 = 1;
  3023  04A4  1283               	bcf	3,5	;RP0=0, select bank0
  3024  04A5  1303               	bcf	3,6	;RP1=0, select bank0
  3025  04A6  1406               	bsf	6,0	;volatile
  3026  04A7                     i1l816:
  3027                           
  3028                           ;pro2.c: 315:             _delay((unsigned long)((1.5)*(8000000/4000.0)));
  3029  04A7  3004               	movlw	4
  3030  04A8  00F1               	movwf	??_servo1_3+1
  3031  04A9  30E4               	movlw	228
  3032  04AA  00F0               	movwf	??_servo1_3
  3033  04AB                     u78_27:
  3034  04AB  0BF0               	decfsz	??_servo1_3,f
  3035  04AC  2CAB               	goto	u78_27
  3036  04AD  0BF1               	decfsz	??_servo1_3+1,f
  3037  04AE  2CAB               	goto	u78_27
  3038  04AF  0000               	nop
  3039  04B0                     i1l818:
  3040                           
  3041                           ;pro2.c: 316:             PORTBbits.RB0 = 0;
  3042  04B0  1283               	bcf	3,5	;RP0=0, select bank0
  3043  04B1  1303               	bcf	3,6	;RP1=0, select bank0
  3044  04B2  1006               	bcf	6,0	;volatile
  3045                           
  3046                           ;pro2.c: 317:             _delay((unsigned long)((18.5)*(8000000/4000.0)));
  3047  04B3  3031               	movlw	49
  3048  04B4  00F1               	movwf	??_servo1_3+1
  3049  04B5  300B               	movlw	11
  3050  04B6  00F0               	movwf	??_servo1_3
  3051  04B7                     u79_27:
  3052  04B7  0BF0               	decfsz	??_servo1_3,f
  3053  04B8  2CB7               	goto	u79_27
  3054  04B9  0BF1               	decfsz	??_servo1_3+1,f
  3055  04BA  2CB7               	goto	u79_27
  3056  04BB  2CBC               	nop2
  3057  04BC                     i1l159:
  3058  04BC  0008               	return
  3059  04BD                     __end_of_servo1_3:
  3060                           
  3061                           	psect	text21
  3062  04BD                     __ptext21:	
  3063 ;; *************** function _servo1_2 *****************
  3064 ;; Defined at:
  3065 ;;		line 305 in file "pro2.c"
  3066 ;; Parameters:    Size  Location     Type
  3067 ;;		None
  3068 ;; Auto vars:     Size  Location     Type
  3069 ;;		None
  3070 ;; Return value:  Size  Location     Type
  3071 ;;                  1    wreg      void 
  3072 ;; Registers used:
  3073 ;;		wreg
  3074 ;; Tracked objects:
  3075 ;;		On entry : 0/0
  3076 ;;		On exit  : 0/0
  3077 ;;		Unchanged: 0/0
  3078 ;; Data sizes:     COMMON   BANK0   BANK1   BANK3   BANK2
  3079 ;;      Params:         0       0       0       0       0
  3080 ;;      Locals:         0       0       0       0       0
  3081 ;;      Temps:          2       0       0       0       0
  3082 ;;      Totals:         2       0       0       0       0
  3083 ;;Total ram usage:        2 bytes
  3084 ;; Hardware stack levels used:    1
  3085 ;; This function calls:
  3086 ;;		Nothing
  3087 ;; This function is called by:
  3088 ;;		_isr
  3089 ;; This function uses a non-reentrant model
  3090 ;;
  3091                           
  3092                           
  3093                           ;psect for function _servo1_2
  3094  04BD                     _servo1_2:
  3095  04BD                     i1l808:	
  3096                           ;incstack = 0
  3097                           ; Regs used in _servo1_2: [wreg]
  3098                           
  3099                           
  3100                           ;pro2.c: 307:             PORTBbits.RB0 = 1;
  3101  04BD  1283               	bcf	3,5	;RP0=0, select bank0
  3102  04BE  1303               	bcf	3,6	;RP1=0, select bank0
  3103  04BF  1406               	bsf	6,0	;volatile
  3104  04C0                     i1l810:
  3105                           
  3106                           ;pro2.c: 308:             _delay((unsigned long)((1.25)*(8000000/4000.0)));
  3107  04C0  3004               	movlw	4
  3108  04C1  00F1               	movwf	??_servo1_2+1
  3109  04C2  303D               	movlw	61
  3110  04C3  00F0               	movwf	??_servo1_2
  3111  04C4                     u80_27:
  3112  04C4  0BF0               	decfsz	??_servo1_2,f
  3113  04C5  2CC4               	goto	u80_27
  3114  04C6  0BF1               	decfsz	??_servo1_2+1,f
  3115  04C7  2CC4               	goto	u80_27
  3116  04C8  2CC9               	nop2
  3117  04C9                     i1l812:
  3118                           
  3119                           ;pro2.c: 309:             PORTBbits.RB0 = 0;
  3120  04C9  1283               	bcf	3,5	;RP0=0, select bank0
  3121  04CA  1303               	bcf	3,6	;RP1=0, select bank0
  3122  04CB  1006               	bcf	6,0	;volatile
  3123                           
  3124                           ;pro2.c: 310:             _delay((unsigned long)((18.75)*(8000000/4000.0)));
  3125  04CC  3031               	movlw	49
  3126  04CD  00F1               	movwf	??_servo1_2+1
  3127  04CE  30B2               	movlw	178
  3128  04CF  00F0               	movwf	??_servo1_2
  3129  04D0                     u81_27:
  3130  04D0  0BF0               	decfsz	??_servo1_2,f
  3131  04D1  2CD0               	goto	u81_27
  3132  04D2  0BF1               	decfsz	??_servo1_2+1,f
  3133  04D3  2CD0               	goto	u81_27
  3134  04D4  0000               	nop
  3135  04D5                     i1l156:
  3136  04D5  0008               	return
  3137  04D6                     __end_of_servo1_2:
  3138                           
  3139                           	psect	text22
  3140  04D6                     __ptext22:	
  3141 ;; *************** function _servo1 *****************
  3142 ;; Defined at:
  3143 ;;		line 298 in file "pro2.c"
  3144 ;; Parameters:    Size  Location     Type
  3145 ;;		None
  3146 ;; Auto vars:     Size  Location     Type
  3147 ;;		None
  3148 ;; Return value:  Size  Location     Type
  3149 ;;                  1    wreg      void 
  3150 ;; Registers used:
  3151 ;;		wreg
  3152 ;; Tracked objects:
  3153 ;;		On entry : 0/0
  3154 ;;		On exit  : 0/0
  3155 ;;		Unchanged: 0/0
  3156 ;; Data sizes:     COMMON   BANK0   BANK1   BANK3   BANK2
  3157 ;;      Params:         0       0       0       0       0
  3158 ;;      Locals:         0       0       0       0       0
  3159 ;;      Temps:          2       0       0       0       0
  3160 ;;      Totals:         2       0       0       0       0
  3161 ;;Total ram usage:        2 bytes
  3162 ;; Hardware stack levels used:    1
  3163 ;; This function calls:
  3164 ;;		Nothing
  3165 ;; This function is called by:
  3166 ;;		_isr
  3167 ;; This function uses a non-reentrant model
  3168 ;;
  3169                           
  3170                           
  3171                           ;psect for function _servo1
  3172  04D6                     _servo1:
  3173  04D6                     i1l802:	
  3174                           ;incstack = 0
  3175                           ; Regs used in _servo1: [wreg]
  3176                           
  3177                           
  3178                           ;pro2.c: 300:             PORTBbits.RB0 = 1;
  3179  04D6  1283               	bcf	3,5	;RP0=0, select bank0
  3180  04D7  1303               	bcf	3,6	;RP1=0, select bank0
  3181  04D8  1406               	bsf	6,0	;volatile
  3182  04D9                     i1l804:
  3183                           
  3184                           ;pro2.c: 301:             _delay((unsigned long)((0.7)*(8000000/4000.0)));
  3185  04D9  30C7               	movlw	199
  3186  04DA  00F0               	movwf	??_servo1
  3187  04DB                     u82_27:
  3188  04DB  2CDC               	nop2
  3189  04DC  2CDD               	nop2
  3190  04DD  0BF0               	decfsz	??_servo1,f
  3191  04DE  2CDB               	goto	u82_27
  3192  04DF  2CE0               	nop2
  3193  04E0  2CE1               	nop2
  3194  04E1  2CE2               	nop2
  3195  04E2                     i1l806:
  3196                           
  3197                           ;pro2.c: 302:             PORTBbits.RB0 = 0;
  3198  04E2  1283               	bcf	3,5	;RP0=0, select bank0
  3199  04E3  1303               	bcf	3,6	;RP1=0, select bank0
  3200  04E4  1006               	bcf	6,0	;volatile
  3201                           
  3202                           ;pro2.c: 303:             _delay((unsigned long)((19.3)*(8000000/4000.0)));
  3203  04E5  3033               	movlw	51
  3204  04E6  00F1               	movwf	??_servo1+1
  3205  04E7  301F               	movlw	31
  3206  04E8  00F0               	movwf	??_servo1
  3207  04E9                     u83_27:
  3208  04E9  0BF0               	decfsz	??_servo1,f
  3209  04EA  2CE9               	goto	u83_27
  3210  04EB  0BF1               	decfsz	??_servo1+1,f
  3211  04EC  2CE9               	goto	u83_27
  3212  04ED  2CEE               	nop2
  3213  04EE                     i1l153:
  3214  04EE  0008               	return
  3215  04EF                     __end_of_servo1:
  3216  007E                     btemp	set	126	;btemp
  3217  007E                     wtemp0	set	126
  3218                           
  3219                           	psect	config
  3220                           
  3221                           ;Config register CONFIG1 @ 0x2007
  3222                           ;	Oscillator Selection bits
  3223                           ;	FOSC = INTRC_NOCLKOUT, INTOSCIO oscillator: I/O function on RA6/OSC2/CLKOUT pin, I/O f
      +                          unction on RA7/OSC1/CLKIN
  3224                           ;	Watchdog Timer Enable bit
  3225                           ;	WDTE = OFF, WDT disabled and can be enabled by SWDTEN bit of the WDTCON register
  3226                           ;	Power-up Timer Enable bit
  3227                           ;	PWRTE = OFF, PWRT disabled
  3228                           ;	RE3/MCLR pin function select bit
  3229                           ;	MCLRE = OFF, RE3/MCLR pin function is digital input, MCLR internally tied to VDD
  3230                           ;	Code Protection bit
  3231                           ;	CP = OFF, Program memory code protection is disabled
  3232                           ;	Data Code Protection bit
  3233                           ;	CPD = OFF, Data memory code protection is disabled
  3234                           ;	Brown Out Reset Selection bits
  3235                           ;	BOREN = OFF, BOR disabled
  3236                           ;	Internal External Switchover bit
  3237                           ;	IESO = OFF, Internal/External Switchover mode is disabled
  3238                           ;	Fail-Safe Clock Monitor Enabled bit
  3239                           ;	FCMEN = ON, Fail-Safe Clock Monitor is enabled
  3240                           ;	Low Voltage Programming Enable bit
  3241                           ;	LVP = OFF, RB3 pin has digital I/O, HV on MCLR must be used for programming
  3242                           ;	In-Circuit Debugger Mode bit
  3243                           ;	DEBUG = 0x1, unprogrammed default
  3244  2007                     	org	8199
  3245  2007  28D4               	dw	10452
  3246                           
  3247                           ;Config register CONFIG2 @ 0x2008
  3248                           ;	Brown-out Reset Selection bit
  3249                           ;	BOR4V = BOR40V, Brown-out Reset set to 4.0V
  3250                           ;	Flash Program Memory Self Write Enable bits
  3251                           ;	WRT = OFF, Write protection off
  3252  2008                     	org	8200
  3253  2008  3FFF               	dw	16383

Data Sizes:
    Strings     0
    Constant    0
    Data        0
    BSS         2
    Persistent  0
    Stack       0

Auto Spaces:
    Space          Size  Autos    Used
    COMMON           14      7       9
    BANK0            80      0       0
    BANK1            80      0       0
    BANK3            96      0       0
    BANK2            96      0       0

Pointer List with Targets:

    None.

Critical Paths under _main in COMMON

    None.

Critical Paths under _isr in COMMON

    _isr->_servo1
    _isr->_servo1_2
    _isr->_servo1_3
    _isr->_servo1_4
    _isr->_servo1_5
    _isr->_servo2
    _isr->_servo2_2
    _isr->_servo2_3
    _isr->_servo2_4
    _isr->_servo2_5
    _isr->_servo3
    _isr->_servo3_2
    _isr->_servo3_3
    _isr->_servo3_4
    _isr->_servo3_5
    _isr->_servo4
    _isr->_servo4_2
    _isr->_servo4_3
    _isr->_servo4_4
    _isr->_servo4_5

Critical Paths under _main in BANK0

    None.

Critical Paths under _isr in BANK0

    None.

Critical Paths under _main in BANK1

    None.

Critical Paths under _isr in BANK1

    None.

Critical Paths under _main in BANK3

    None.

Critical Paths under _isr in BANK3

    None.

Critical Paths under _main in BANK2

    None.

Critical Paths under _isr in BANK2

    None.

Call Graph Tables:

 ---------------------------------------------------------------------------------
 (Depth) Function   	        Calls       Base Space   Used Autos Params    Refs
 ---------------------------------------------------------------------------------
 (0) _main                                                 0     0      0       0
                              _setup
 ---------------------------------------------------------------------------------
 (1) _setup                                                0     0      0       0
 ---------------------------------------------------------------------------------
 Estimated maximum stack depth 1
 ---------------------------------------------------------------------------------
 (Depth) Function   	        Calls       Base Space   Used Autos Params    Refs
 ---------------------------------------------------------------------------------
 (2) _isr                                                  5     5      0       0
                                              2 COMMON     5     5      0
                             _servo1
                           _servo1_2
                           _servo1_3
                           _servo1_4
                           _servo1_5
                             _servo2
                           _servo2_2
                           _servo2_3
                           _servo2_4
                           _servo2_5
                             _servo3
                           _servo3_2
                           _servo3_3
                           _servo3_4
                           _servo3_5
                             _servo4
                           _servo4_2
                           _servo4_3
                           _servo4_4
                           _servo4_5
 ---------------------------------------------------------------------------------
 (3) _servo4_5                                             2     2      0       0
                                              0 COMMON     2     2      0
 ---------------------------------------------------------------------------------
 (3) _servo4_4                                             2     2      0       0
                                              0 COMMON     2     2      0
 ---------------------------------------------------------------------------------
 (3) _servo4_3                                             2     2      0       0
                                              0 COMMON     2     2      0
 ---------------------------------------------------------------------------------
 (3) _servo4_2                                             2     2      0       0
                                              0 COMMON     2     2      0
 ---------------------------------------------------------------------------------
 (3) _servo4                                               2     2      0       0
                                              0 COMMON     2     2      0
 ---------------------------------------------------------------------------------
 (3) _servo3_5                                             2     2      0       0
                                              0 COMMON     2     2      0
 ---------------------------------------------------------------------------------
 (3) _servo3_4                                             2     2      0       0
                                              0 COMMON     2     2      0
 ---------------------------------------------------------------------------------
 (3) _servo3_3                                             2     2      0       0
                                              0 COMMON     2     2      0
 ---------------------------------------------------------------------------------
 (3) _servo3_2                                             2     2      0       0
                                              0 COMMON     2     2      0
 ---------------------------------------------------------------------------------
 (3) _servo3                                               2     2      0       0
                                              0 COMMON     2     2      0
 ---------------------------------------------------------------------------------
 (3) _servo2_5                                             2     2      0       0
                                              0 COMMON     2     2      0
 ---------------------------------------------------------------------------------
 (3) _servo2_4                                             2     2      0       0
                                              0 COMMON     2     2      0
 ---------------------------------------------------------------------------------
 (3) _servo2_3                                             2     2      0       0
                                              0 COMMON     2     2      0
 ---------------------------------------------------------------------------------
 (3) _servo2_2                                             2     2      0       0
                                              0 COMMON     2     2      0
 ---------------------------------------------------------------------------------
 (3) _servo2                                               2     2      0       0
                                              0 COMMON     2     2      0
 ---------------------------------------------------------------------------------
 (3) _servo1_5                                             2     2      0       0
                                              0 COMMON     2     2      0
 ---------------------------------------------------------------------------------
 (3) _servo1_4                                             2     2      0       0
                                              0 COMMON     2     2      0
 ---------------------------------------------------------------------------------
 (3) _servo1_3                                             2     2      0       0
                                              0 COMMON     2     2      0
 ---------------------------------------------------------------------------------
 (3) _servo1_2                                             2     2      0       0
                                              0 COMMON     2     2      0
 ---------------------------------------------------------------------------------
 (3) _servo1                                               2     2      0       0
                                              0 COMMON     2     2      0
 ---------------------------------------------------------------------------------
 Estimated maximum stack depth 3
 ---------------------------------------------------------------------------------

 Call Graph Graphs:

 _main (ROOT)
   _setup

 _isr (ROOT)
   _servo1
   _servo1_2
   _servo1_3
   _servo1_4
   _servo1_5
   _servo2
   _servo2_2
   _servo2_3
   _servo2_4
   _servo2_5
   _servo3
   _servo3_2
   _servo3_3
   _servo3_4
   _servo3_5
   _servo4
   _servo4_2
   _servo4_3
   _servo4_4
   _servo4_5

 Address spaces:
Name               Size   Autos  Total    Cost      Usage
BITCOMMON            E      0       0       0        0.0%
EEDATA             100      0       0       0        0.0%
NULL                 0      0       0       0        0.0%
CODE                 0      0       0       0        0.0%
COMMON               E      7       9       1       64.3%
BITSFR0              0      0       0       1        0.0%
SFR0                 0      0       0       1        0.0%
BITSFR1              0      0       0       2        0.0%
SFR1                 0      0       0       2        0.0%
STACK                0      0       0       2        0.0%
ABS                  0      0       9       3        0.0%
BITBANK0            50      0       0       4        0.0%
BITSFR3              0      0       0       4        0.0%
SFR3                 0      0       0       4        0.0%
BANK0               50      0       0       5        0.0%
BITSFR2              0      0       0       5        0.0%
SFR2                 0      0       0       5        0.0%
BITBANK1            50      0       0       6        0.0%
BANK1               50      0       0       7        0.0%
BITBANK3            60      0       0       8        0.0%
BANK3               60      0       0       9        0.0%
BITBANK2            60      0       0      10        0.0%
BANK2               60      0       0      11        0.0%
DATA                 0      0       9      12        0.0%


Microchip Technology PIC Macro Assembler V2.31 build 20201012212115 
Symbol Table                                                                                   Fri May 28 18:51:49 2021

                      _M 0077                       u10 02ED                       u11 02EC  
                    l150 02FA                      l147 02E9                      l149 02ED  
                    l930 02B1                      l922 02A7                      l940 02B6  
                    l932 02B2                      l924 02AB                      l950 02C3  
                    l942 02BD                      l934 02B3                      l926 02AC  
                    l960 02CD                      l952 02C7                      l944 02C0  
                    l936 02B4                      l928 02B0                      l970 02D3  
                    l962 02CE                      l954 02C8                      l946 02C1  
                    l938 02B5                      l980 02DF                      l972 02D7  
                    l964 02CF                      l956 02C9                      l948 02C2  
                    l990 02E8                      l982 02E1                      l974 02DB  
                    l966 02D0                      l958 02CA                      l984 02E3  
                    l976 02DC                      l968 02D1                      l986 02E5  
                    l978 02DD                      l988 02E6                      _PR2 0092  
                    _isr 0019                     l1142 04EF                     l1144 04F4  
                   ?_isr 0070                     u2_20 001D                     u2_21 001C  
                   u3_20 0026                     u3_21 0025                     u4_20 002E  
                   u4_21 002D                     u5_20 0036                     u5_21 0035  
                   u6_20 003E                     u6_21 003D                     u7_20 004B  
                   u7_21 004A                     u8_20 0063                     u8_21 0062  
                   u8_25 005F                     u9_20 0075                     u9_21 0074  
                   u9_25 0071                     _main 04EF                     btemp 007E  
                   start 0010                    ??_isr 0072                    ?_main 0070  
                  _ANSEL 0188                    i1l103 0032                    i1l104 0041  
                  i1l201 035E                    i1l105 003A                    i1l210 0313  
                  i1l204 0345                    i1l207 032C                    i1l136 029E  
                  i1l153 04EE                    i1l162 04A3                    i1l171 0458  
                  i1l156 04D5                    i1l180 040D                    i1l165 048A  
                  i1l174 043F                    i1l159 04BC                    i1l183 03F4  
                  i1l168 0471                    i1l192 03A9                    i1l177 0426  
                  i1l186 03DB                    i1l195 0390                    i1l189 03C2  
                  i1l198 0377                    i1l802 04D6                    i1l810 04C0  
                  i1l804 04D9                    i1l812 04C9                    i1l820 048B  
                  i1l900 0349                    i1l806 04E2                    i1l814 04A4  
                  i1l822 048E                    i1l830 047E                    i1l902 0352  
                  i1l910 0314                    i1l808 04BD                    i1l816 04A7  
                  i1l824 0497                    i1l832 0459                    i1l840 0443  
                  i1l904 032D                    i1l912 0317                    i1l920 0307  
                  i1l818 04B0                    i1l826 0472                    i1l834 045C  
                  i1l842 044C                    i1l850 040E                    i1l906 0330  
                  i1l914 0320                    i1l828 0475                    i1l836 0465  
                  i1l844 0427                    i1l852 0411                    i1l860 0401  
                  i1l908 0339                    i1l916 02FB                    i1l838 0440  
                  i1l846 042A                    i1l854 041A                    i1l862 03DC  
                  i1l870 03C6                    i1l918 02FE                    i1l848 0433  
                  i1l856 03F5                    i1l864 03DF                    i1l872 03CF  
                  i1l880 0391                    i1l858 03F8                    i1l866 03E8  
                  i1l874 03AA                    i1l882 0394                    i1l890 0384  
                  i1l868 03C3                    i1l876 03AD                    i1l884 039D  
                  i1l892 035F                    i1l878 03B6                    i1l886 0378  
                  i1l894 0362                    i1l888 037B                    i1l896 036B  
                  i1l992 0019                    i1l898 0346                    i1l994 001D  
                  i1l996 0026                    i1l998 002A                    u10_20 0082  
                  u10_21 0081                    u10_25 007E                    u11_20 0094  
                  u11_21 0093                    u11_25 0090                    u20_20 012A  
                  u12_20 00A1                    u20_21 0129                    u12_21 00A0  
                  u20_25 0126                    u12_25 009D                    u21_20 0137  
                  u13_20 00B3                    u21_21 0136                    u13_21 00B2  
                  u21_25 0133                    u13_25 00AF                    u30_20 01CD  
                  u22_20 0149                    u14_20 00C0                    u30_21 01CC  
                  u22_21 0148                    u14_21 00BF                    u30_25 01C9  
                  u22_25 0145                    u14_25 00BC                    u31_20 01DF  
                  u23_20 0156                    u15_20 00D2                    u31_21 01DE  
                  u23_21 0155                    u15_21 00D1                    u31_25 01DB  
                  u23_25 0152                    u15_25 00CE                    u40_20 0273  
                  u32_20 01EC                    u24_20 0168                    u16_20 00E1  
                  u40_21 0272                    u32_21 01EB                    u24_21 0167  
                  u16_21 00E0                    u40_25 026F                    u32_25 01E8  
                  u24_25 0164                    u41_20 0280                    u33_20 01FE  
                  u25_20 0177                    u17_20 00F9                    u41_21 027F  
                  u33_21 01FD                    u25_21 0176                    u17_21 00F8  
                  u41_25 027C                    u33_25 01FA                    u17_25 00F5  
                  u42_20 0292                    u34_20 020D                    u26_20 018F  
                  u18_20 010B                    u42_21 0291                    u34_21 020C  
                  u26_21 018E                    u18_21 010A                    u42_25 028E  
                  u26_25 018B                    u18_25 0107                    u50_27 034D  
                  u35_20 0223                    u27_20 01A1                    u19_20 0118  
                  u35_21 0222                    u27_21 01A0                    u19_21 0117  
                  _PORTA 0005                    _PORTB 0006                    _PORTC 0007  
                  _PORTD 0008                    u35_25 021F                    u27_25 019D  
                  u19_25 0114                    u51_27 0359                    u43_27 0299  
                  u36_20 0235                    u28_20 01AE                    u36_21 0234  
                  u28_21 01AD                    u36_25 0231                    u28_25 01AA  
                  u60_27 03CA                    u52_27 0364                    u44_27 0302  
                  u37_20 0242                    u29_20 01C0                    u37_21 0241  
                  u29_21 01BF                    u37_25 023E                    u29_25 01BC  
                  u61_27 03D6                    u53_27 0372                    u45_27 030E  
                  u38_20 0254                    u38_21 0253                    u38_25 0250  
                  u70_27 0447                    u62_27 03E1                    u54_27 037F  
                  u46_27 031B                    u39_20 0261                    u39_21 0260  
                  u39_25 025D                    u71_27 0453                    u63_27 03EF  
                  u55_27 038B                    u47_27 0327                    u80_27 04C4  
                  u72_27 045E                    u64_27 03FC                    u56_27 0398  
                  u48_27 0334                    _TRISA 0085                    u81_27 04D0  
                  u73_27 046C                    u65_27 0408                    u57_27 03A4  
                  u49_27 0340                    u82_27 04DB                    u74_27 0479  
                  u66_27 0415                    u58_27 03B1                    u83_27 04E9  
                  u75_27 0485                    u67_27 0421                    u59_27 03BD  
                  u76_27 0492                    u68_27 042E                    u77_27 049E  
                  u69_27 043A                    u78_27 04AB                    u79_27 04B7  
                  _setup 02A7                    pclath 000A                    status 0003  
                  wtemp0 007E          __initialization 0013             __end_of_main 04FB  
                 ??_main 0077                   _ADRESH 001E                   _CCPR1L 0015  
                 _CCPR2L 001B                   ?_setup 0070                   _ANSELH 0189  
                 i1l1000 002E                   i1l1002 002F                   i1l1010 0042  
                 i1l1100 01EC                   i1l1020 0068                   i1l1012 004B  
                 i1l1004 0036                   i1l1110 0214                   i1l1102 01F1  
                 i1l1030 00A1                   i1l1022 0075                   i1l1014 0052  
                 i1l1006 0038                   i1l1120 0242                   i1l1112 0216  
                 i1l1104 01FE                   i1l1040 00D2                   i1l1032 00A6  
                 i1l1024 0082                   i1l1016 0056                   i1l1008 003E  
                 i1l1130 0273                   i1l1122 0247                   i1l1114 0223  
                 i1l1106 0204                   i1l1050 00F9                   i1l1034 00B3  
                 i1l1026 0087                   i1l1018 0063                   i1l1042 00D8  
                 i1l1140 029B                   i1l1132 0280                   i1l1124 0254  
                 i1l1116 0228                   i1l1108 020D                   i1l1060 012A  
                 i1l1052 00FE                   i1l1044 00E1                   i1l1036 00C0  
                 i1l1028 0094                   i1l1134 0285                   i1l1126 0261  
                 i1l1118 0235                   i1l1070 015B                   i1l1062 0137  
                 i1l1054 010B                   i1l1046 00E8                   i1l1038 00C5  
                 i1l1136 0292                   i1l1128 0266                   i1l1080 0182  
                 i1l1072 0168                   i1l1064 013C                   i1l1056 0118  
                 i1l1048 00EC                   i1l1090 01B3                   i1l1082 018F  
                 i1l1066 0149                   i1l1058 011D                   i1l1074 016E  
                 i1l1138 0297                   i1l1092 01C0                   i1l1084 0194  
                 i1l1076 0177                   i1l1068 0156                   i1l1094 01CD  
                 i1l1086 01A1                   i1l1078 017E                   i1l1096 01D2  
                 i1l1088 01AE                   i1l1098 01DF                   _servo1 04D6  
                 _servo2 0459                   _servo3 03DC                   _servo4 035F  
       __end_of_servo1_2 04D6         __end_of_servo1_3 04BD         __end_of_servo1_4 04A4  
       __end_of_servo1_5 048B         __end_of_servo2_2 0459         __end_of_servo2_3 0440  
       __end_of_servo2_4 0427         __end_of_servo2_5 040E         __end_of_servo3_2 03DC  
       __end_of_servo3_3 03C3         __end_of_servo3_4 03AA         __end_of_servo3_5 0391  
       __end_of_servo4_2 035F         __end_of_servo4_3 0346         __end_of_servo4_4 032D  
       __end_of_servo4_5 0314                   saved_w 007E  __end_of__initialization 0015  
         __pcstackCOMMON 0070            __end_of_setup 02FB                  ??_setup 0077  
             __pmaintext 04EF               __pintentry 0004                  ?_servo1 0070  
                ?_servo2 0070                  ?_servo3 0070                  ?_servo4 0070  
              ?_servo1_2 0070                ?_servo1_3 0070                ?_servo1_4 0070  
              ?_servo1_5 0070                ?_servo2_2 0070                ?_servo2_3 0070  
              ?_servo2_4 0070                ?_servo2_5 0070                ?_servo3_2 0070  
              ?_servo3_3 0070                ?_servo3_4 0070                ?_servo3_5 0070  
              ?_servo4_2 0070                ?_servo4_3 0070                ?_servo4_4 0070  
              ?_servo4_5 0070                  __ptext1 02A7                  __ptext2 0019  
                __ptext3 02FB                  __ptext4 0314                  __ptext5 032D  
                __ptext6 0346                  __ptext7 035F                  __ptext8 0378  
                __ptext9 0391          __size_of_servo1 0019          __size_of_servo2 0019  
        __size_of_servo3 0019          __size_of_servo4 0019                _T2CONbits 0012  
           __size_of_isr 028E     end_of_initialization 0015               ??_servo1_2 0070  
             ??_servo1_3 0070               ??_servo1_4 0070               ??_servo1_5 0070  
             ??_servo2_2 0070               ??_servo2_3 0070               ??_servo2_4 0070  
             ??_servo2_5 0070               ??_servo3_2 0070               ??_servo3_3 0070  
             ??_servo3_4 0070               ??_servo3_5 0070               ??_servo4_2 0070  
             ??_servo4_3 0070               ??_servo4_4 0070               ??_servo4_5 0070  
              _PORTBbits 0006                _PORTDbits 0008                _TRISBbits 0086  
              _TRISCbits 0087                _TRISDbits 0088              _CCP1CONbits 0017  
            _CCP2CONbits 001D           __end_of_servo1 04EF           __end_of_servo2 0472  
         __end_of_servo3 03F5           __end_of_servo4 0378      start_initialization 0013  
            __end_of_isr 02A7                 ??_servo1 0070                 ??_servo2 0070  
               ??_servo3 0070                 ??_servo4 0070              __pbssCOMMON 0077  
              ___latbits 0002        __size_of_servo1_2 0019        __size_of_servo1_3 0019  
      __size_of_servo1_4 0019        __size_of_servo1_5 0019        __size_of_servo2_2 0019  
      __size_of_servo2_3 0019        __size_of_servo2_4 0019        __size_of_servo2_5 0019  
      __size_of_servo3_2 0019        __size_of_servo3_3 0019        __size_of_servo3_4 0019  
      __size_of_servo3_5 0019        __size_of_servo4_2 0019        __size_of_servo4_3 0019  
      __size_of_servo4_4 0019        __size_of_servo4_5 0019           __size_of_setup 0054  
      interrupt_function 0004                 _PIE1bits 008C                 _PIR1bits 000C  
             _ADCON0bits 001F               _ADCON1bits 009F                 __ptext10 03AA  
               __ptext11 03C3                 __ptext20 04A4                 __ptext12 03DC  
               __ptext21 04BD                 __ptext13 03F5                 __ptext22 04D6  
               __ptext14 040E                 __ptext15 0427                 __ptext16 0440  
               __ptext17 0459                 __ptext18 0472                 __ptext19 048B  
          __size_of_main 000C                 _servo1_2 04BD                 _servo1_3 04A4  
               _servo1_4 048B                 _servo1_5 0472                 _servo2_2 0440  
               _servo2_3 0427                 _servo2_4 040E                 _servo2_5 03F5  
               _servo3_2 03C3                 _servo3_3 03AA                 _servo3_4 0391  
               _servo3_5 0378                 _servo4_2 0346                 _servo4_3 032D  
               _servo4_4 0314                 _servo4_5 02FB               _INTCONbits 000B  
               intlevel1 0000               _OSCCONbits 008F  
