

Microchip MPLAB XC8 Assembler V2.31 build 20201012212115 
                                                                                               Fri Jun 04 02:11:31 2021

Microchip MPLAB XC8 C Compiler v2.31 (Free license) build 20201012212115 Og1 
     1                           	processor	16F887
     2                           	pagewidth 120
     3                           	opt	flic
     4                           	psect	strings,global,class=STRING,delta=2,noexec
     5                           	psect	stringtext,global,reloc=256,class=STRCODE,delta=2,noexec
     6                           	psect	cinit,global,class=CODE,merge=1,delta=2
     7                           	psect	bssCOMMON,global,class=COMMON,space=1,delta=1,noexec
     8                           	psect	bssBANK0,global,class=BANK0,space=1,delta=1,noexec
     9                           	psect	cstackCOMMON,global,class=COMMON,space=1,delta=1,noexec
    10                           	psect	cstackBANK0,global,class=BANK0,space=1,delta=1,noexec
    11                           	psect	maintext,global,class=CODE,split=1,delta=2
    12                           	psect	text1,local,class=CODE,merge=1,delta=2
    13                           	psect	text2,local,class=CODE,merge=1,delta=2
    14                           	psect	intentry,global,class=CODE,delta=2
    15                           	psect	text3,local,class=CODE,merge=1,delta=2
    16                           	psect	text4,local,class=CODE,merge=1,delta=2
    17                           	psect	text5,local,class=CODE,merge=1,delta=2
    18                           	psect	text6,local,class=CODE,merge=1,delta=2
    19                           	psect	text7,local,class=CODE,merge=1,delta=2
    20                           	psect	text8,local,class=CODE,merge=1,delta=2
    21                           	psect	text9,local,class=CODE,merge=1,delta=2
    22                           	psect	text10,local,class=CODE,merge=1,delta=2
    23                           	psect	text11,local,class=CODE,merge=1,delta=2
    24                           	psect	text12,local,class=CODE,merge=1,delta=2
    25                           	psect	text13,local,class=CODE,merge=1,delta=2
    26                           	psect	text14,local,class=CODE,merge=1,delta=2
    27                           	psect	text15,local,class=CODE,merge=1,delta=2
    28                           	psect	text16,local,class=CODE,merge=1,delta=2
    29                           	psect	text17,local,class=CODE,merge=1,delta=2
    30                           	psect	text18,local,class=CODE,merge=1,delta=2
    31                           	psect	text19,local,class=CODE,merge=1,delta=2
    32                           	psect	text20,local,class=CODE,merge=1,delta=2
    33                           	psect	text21,local,class=CODE,merge=1,delta=2
    34                           	psect	text22,local,class=CODE,merge=1,delta=2
    35                           	psect	text23,local,class=CODE,merge=1,delta=2
    36                           	psect	text24,local,class=CODE,merge=1,delta=2
    37                           	psect	text25,local,class=CODE,merge=1,delta=2,group=1
    38                           	psect	text26,local,class=CODE,merge=1,delta=2
    39                           	psect	text27,local,class=CODE,merge=1,delta=2
    40                           	psect	text28,local,class=CODE,merge=1,delta=2
    41                           	psect	text29,local,class=CODE,merge=1,delta=2,group=2
    42                           	psect	config,global,abs,ovrld,class=CONFIG,space=4,delta=2,noexec
    43                           	dabs	1,0x7E,2
    44  0000                     
    45                           ; Version 2.20
    46                           ; Generated 12/02/2020 GMT
    47                           ; 
    48                           ; Copyright © 2020, Microchip Technology Inc. and its subsidiaries ("Microchip")
    49                           ; All rights reserved.
    50                           ; 
    51                           ; This software is developed by Microchip Technology Inc. and its subsidiaries ("Microch
      +                          ip").
    52                           ; 
    53                           ; Redistribution and use in source and binary forms, with or without modification, are
    54                           ; permitted provided that the following conditions are met:
    55                           ; 
    56                           ;     1. Redistributions of source code must retain the above copyright notice, this lis
      +                          t of
    57                           ;        conditions and the following disclaimer.
    58                           ; 
    59                           ;     2. Redistributions in binary form must reproduce the above copyright notice, this 
      +                          list
    60                           ;        of conditions and the following disclaimer in the documentation and/or other
    61                           ;        materials provided with the distribution.
    62                           ; 
    63                           ;     3. Microchip's name may not be used to endorse or promote products derived from th
      +                          is
    64                           ;        software without specific prior written permission.
    65                           ; 
    66                           ; THIS SOFTWARE IS PROVIDED BY MICROCHIP "AS IS" AND ANY EXPRESS OR IMPLIED WARRANTIES,
    67                           ; INCLUDING, BUT NOT LIMITED TO, THE IMPLIED WARRANTIES OF MERCHANTABILITY AND FITNESS F
      +                          OR
    68                           ; PURPOSE ARE DISCLAIMED.  IN NO EVENT SHALL MICROCHIP BE LIABLE FOR ANY DIRECT, INDIREC
      +                          T,
    69                           ; INCIDENTAL, SPECIAL, EXEMPLARY, OR CONSEQUENTIAL DAMAGES (INCLUDING BUT NOT LIMITED TO
    70                           ; PROCUREMENT OF SUBSTITUTE GOODS OR SERVICES; LOSS OF USE, DATA OR PROFITS; OR BUSINESS
    71                           ; INTERRUPTION) HOWSOEVER CAUSED AND ON ANY THEORY OF LIABILITY, WHETHER IN CONTRACT, ST
      +                          RICT
    72                           ; LIABILITY, OR TORT (INCLUDING NEGLIGENCE OR OTHERWISE) ARISING IN ANY WAY OUT OF THE U
      +                          SE OF
    73                           ; THIS SOFTWARE, EVEN IF ADVISED OF THE POSSIBILITY OF SUCH DAMAGE.
    74                           ; 
    75                           ; 
    76                           ; Code-generator required, PIC16F887 Definitions
    77                           ; 
    78                           ; SFR Addresses
    79  0000                     	;# 
    80  0001                     	;# 
    81  0002                     	;# 
    82  0003                     	;# 
    83  0004                     	;# 
    84  0005                     	;# 
    85  0006                     	;# 
    86  0007                     	;# 
    87  0008                     	;# 
    88  0009                     	;# 
    89  000A                     	;# 
    90  000B                     	;# 
    91  000C                     	;# 
    92  000D                     	;# 
    93  000E                     	;# 
    94  000E                     	;# 
    95  000F                     	;# 
    96  0010                     	;# 
    97  0011                     	;# 
    98  0012                     	;# 
    99  0013                     	;# 
   100  0014                     	;# 
   101  0015                     	;# 
   102  0015                     	;# 
   103  0016                     	;# 
   104  0017                     	;# 
   105  0018                     	;# 
   106  0019                     	;# 
   107  001A                     	;# 
   108  001B                     	;# 
   109  001B                     	;# 
   110  001C                     	;# 
   111  001D                     	;# 
   112  001E                     	;# 
   113  001F                     	;# 
   114  0081                     	;# 
   115  0085                     	;# 
   116  0086                     	;# 
   117  0087                     	;# 
   118  0088                     	;# 
   119  0089                     	;# 
   120  008C                     	;# 
   121  008D                     	;# 
   122  008E                     	;# 
   123  008F                     	;# 
   124  0090                     	;# 
   125  0091                     	;# 
   126  0092                     	;# 
   127  0093                     	;# 
   128  0093                     	;# 
   129  0093                     	;# 
   130  0094                     	;# 
   131  0095                     	;# 
   132  0096                     	;# 
   133  0097                     	;# 
   134  0098                     	;# 
   135  0099                     	;# 
   136  009A                     	;# 
   137  009B                     	;# 
   138  009C                     	;# 
   139  009D                     	;# 
   140  009E                     	;# 
   141  009F                     	;# 
   142  0105                     	;# 
   143  0107                     	;# 
   144  0108                     	;# 
   145  0109                     	;# 
   146  010C                     	;# 
   147  010C                     	;# 
   148  010D                     	;# 
   149  010E                     	;# 
   150  010F                     	;# 
   151  0185                     	;# 
   152  0187                     	;# 
   153  0188                     	;# 
   154  0189                     	;# 
   155  018C                     	;# 
   156  018D                     	;# 
   157  0000                     	;# 
   158  0001                     	;# 
   159  0002                     	;# 
   160  0003                     	;# 
   161  0004                     	;# 
   162  0005                     	;# 
   163  0006                     	;# 
   164  0007                     	;# 
   165  0008                     	;# 
   166  0009                     	;# 
   167  000A                     	;# 
   168  000B                     	;# 
   169  000C                     	;# 
   170  000D                     	;# 
   171  000E                     	;# 
   172  000E                     	;# 
   173  000F                     	;# 
   174  0010                     	;# 
   175  0011                     	;# 
   176  0012                     	;# 
   177  0013                     	;# 
   178  0014                     	;# 
   179  0015                     	;# 
   180  0015                     	;# 
   181  0016                     	;# 
   182  0017                     	;# 
   183  0018                     	;# 
   184  0019                     	;# 
   185  001A                     	;# 
   186  001B                     	;# 
   187  001B                     	;# 
   188  001C                     	;# 
   189  001D                     	;# 
   190  001E                     	;# 
   191  001F                     	;# 
   192  0081                     	;# 
   193  0085                     	;# 
   194  0086                     	;# 
   195  0087                     	;# 
   196  0088                     	;# 
   197  0089                     	;# 
   198  008C                     	;# 
   199  008D                     	;# 
   200  008E                     	;# 
   201  008F                     	;# 
   202  0090                     	;# 
   203  0091                     	;# 
   204  0092                     	;# 
   205  0093                     	;# 
   206  0093                     	;# 
   207  0093                     	;# 
   208  0094                     	;# 
   209  0095                     	;# 
   210  0096                     	;# 
   211  0097                     	;# 
   212  0098                     	;# 
   213  0099                     	;# 
   214  009A                     	;# 
   215  009B                     	;# 
   216  009C                     	;# 
   217  009D                     	;# 
   218  009E                     	;# 
   219  009F                     	;# 
   220  0105                     	;# 
   221  0107                     	;# 
   222  0108                     	;# 
   223  0109                     	;# 
   224  010C                     	;# 
   225  010C                     	;# 
   226  010D                     	;# 
   227  010E                     	;# 
   228  010F                     	;# 
   229  0185                     	;# 
   230  0187                     	;# 
   231  0188                     	;# 
   232  0189                     	;# 
   233  018C                     	;# 
   234  018D                     	;# 
   235  0019                     _TXREG	set	25
   236  001A                     _RCREG	set	26
   237  000D                     _PIR2bits	set	13
   238  0018                     _RCSTAbits	set	24
   239  0012                     _T2CONbits	set	18
   240  001D                     _CCP2CONbits	set	29
   241  0017                     _CCP1CONbits	set	23
   242  0007                     _PORTC	set	7
   243  0009                     _PORTE	set	9
   244  0006                     _PORTB	set	6
   245  0008                     _PORTD	set	8
   246  0005                     _PORTA	set	5
   247  000B                     _INTCONbits	set	11
   248  0006                     _PORTBbits	set	6
   249  001E                     _ADRESH	set	30
   250  001B                     _CCPR2L	set	27
   251  0015                     _CCPR1L	set	21
   252  0008                     _PORTDbits	set	8
   253  001F                     _ADCON0bits	set	31
   254  000C                     _PIR1bits	set	12
   255  0064                     _TXIF	set	100
   256  0065                     _RCIF	set	101
   257  004A                     _RE2	set	74
   258  0049                     _RE1	set	73
   259  0048                     _RE0	set	72
   260  0058                     _RBIF	set	88
   261  008C                     _PIE1bits	set	140
   262  009A                     _SPBRGH	set	154
   263  0099                     _SPBRG	set	153
   264  0098                     _TXSTAbits	set	152
   265  0092                     _PR2	set	146
   266  0087                     _TRISCbits	set	135
   267  009F                     _ADCON1bits	set	159
   268  0096                     _IOCBbits	set	150
   269  0095                     _WPUB	set	149
   270  0081                     _OPTION_REGbits	set	129
   271  008F                     _OSCCONbits	set	143
   272  0089                     _TRISEbits	set	137
   273  0088                     _TRISDbits	set	136
   274  0086                     _TRISBbits	set	134
   275  0085                     _TRISA	set	133
   276  010C                     _EEDAT	set	268
   277  010C                     _EEDATA	set	268
   278  010D                     _EEADR	set	269
   279  018D                     _EECON2	set	397
   280  018C                     _EECON1bits	set	396
   281  0187                     _BAUDCTLbits	set	391
   282  0189                     _ANSELH	set	393
   283  0188                     _ANSEL	set	392
   284                           
   285                           	psect	strings
   286  0800                     __pstrings:
   287  0800                     stringtab:
   288  0800                     __stringtab:
   289                           
   290                           ;	String table - string pointers are 2 bytes each
   291  0800  1BFF               	btfsc	btemp+1,7
   292  0801  280A               	ljmp	stringcode
   293  0802  1383               	bcf	3,7
   294  0803  187F               	btfsc	btemp+1,0
   295  0804  1783               	bsf	3,7
   296  0805  0800               	movf	0,w
   297  0806  0A84               	incf	4,f
   298  0807  1903               	skipnz
   299  0808  0AFF               	incf	btemp+1,f
   300  0809  0008               	return
   301  080A                     stringcode:
   302  080A  087F               	movf	btemp+1,w
   303  080B  397F               	andlw	127
   304  080C  008A               	movwf	10
   305  080D  0804               	movf	4,w
   306  080E  0A84               	incf	4,f
   307  080F  1903               	skipnz
   308  0810  0AFF               	incf	btemp+1,f
   309  0811  0082               	movwf	2
   310  0812                     __stringbase:
   311  0812                     __end_of__stringtab:
   312                           
   313                           	psect	stringtext
   314  0500                     __pstringtext:
   315  0500                     STR_6:
   316  0500  340D               	retlw	13
   317  0501  3428               	retlw	40	;'('
   318  0502  3461               	retlw	97	;'a'
   319  0503  3429               	retlw	41	;')'
   320  0504  3420               	retlw	32	;' '
   321  0505  344D               	retlw	77	;'M'
   322  0506  346F               	retlw	111	;'o'
   323  0507  3476               	retlw	118	;'v'
   324  0508  3465               	retlw	101	;'e'
   325  0509  3472               	retlw	114	;'r'
   326  050A  3420               	retlw	32	;' '
   327  050B  346F               	retlw	111	;'o'
   328  050C  346A               	retlw	106	;'j'
   329  050D  346F               	retlw	111	;'o'
   330  050E  3473               	retlw	115	;'s'
   331  050F  3420               	retlw	32	;' '
   332  0510  3461               	retlw	97	;'a'
   333  0511  3420               	retlw	32	;' '
   334  0512  346C               	retlw	108	;'l'
   335  0513  3461               	retlw	97	;'a'
   336  0514  3420               	retlw	32	;' '
   337  0515  3469               	retlw	105	;'i'
   338  0516  347A               	retlw	122	;'z'
   339  0517  3471               	retlw	113	;'q'
   340  0518  3475               	retlw	117	;'u'
   341  0519  3469               	retlw	105	;'i'
   342  051A  3465               	retlw	101	;'e'
   343  051B  3472               	retlw	114	;'r'
   344  051C  3464               	retlw	100	;'d'
   345  051D  3461               	retlw	97	;'a'
   346  051E  342E               	retlw	46	;'.'
   347  051F  3420               	retlw	32	;' '
   348  0520  340D               	retlw	13
   349  0521  3400               	retlw	0
   350  0522                     STR_12:
   351  0522  340D               	retlw	13
   352  0523  3428               	retlw	40	;'('
   353  0524  3436               	retlw	54	;'6'
   354  0525  3429               	retlw	41	;')'
   355  0526  3420               	retlw	32	;' '
   356  0527  344D               	retlw	77	;'M'
   357  0528  346F               	retlw	111	;'o'
   358  0529  3476               	retlw	118	;'v'
   359  052A  3465               	retlw	101	;'e'
   360  052B  3472               	retlw	114	;'r'
   361  052C  3420               	retlw	32	;' '
   362  052D  3463               	retlw	99	;'c'
   363  052E  3465               	retlw	101	;'e'
   364  052F  346A               	retlw	106	;'j'
   365  0530  3461               	retlw	97	;'a'
   366  0531  3420               	retlw	32	;' '
   367  0532  3470               	retlw	112	;'p'
   368  0533  3461               	retlw	97	;'a'
   369  0534  3472               	retlw	114	;'r'
   370  0535  3461               	retlw	97	;'a'
   371  0536  3420               	retlw	32	;' '
   372  0537  3461               	retlw	97	;'a'
   373  0538  3472               	retlw	114	;'r'
   374  0539  3472               	retlw	114	;'r'
   375  053A  3469               	retlw	105	;'i'
   376  053B  3462               	retlw	98	;'b'
   377  053C  3461               	retlw	97	;'a'
   378  053D  342E               	retlw	46	;'.'
   379  053E  3420               	retlw	32	;' '
   380  053F  340D               	retlw	13
   381  0540  3400               	retlw	0
   382  0541                     STR_14:
   383  0541  340D               	retlw	13
   384  0542  3428               	retlw	40	;'('
   385  0543  3438               	retlw	56	;'8'
   386  0544  3429               	retlw	41	;')'
   387  0545  3420               	retlw	32	;' '
   388  0546  344D               	retlw	77	;'M'
   389  0547  346F               	retlw	111	;'o'
   390  0548  3476               	retlw	118	;'v'
   391  0549  3465               	retlw	101	;'e'
   392  054A  3472               	retlw	114	;'r'
   393  054B  3420               	retlw	32	;' '
   394  054C  3463               	retlw	99	;'c'
   395  054D  3465               	retlw	101	;'e'
   396  054E  346A               	retlw	106	;'j'
   397  054F  3461               	retlw	97	;'a'
   398  0550  3420               	retlw	32	;' '
   399  0551  3470               	retlw	112	;'p'
   400  0552  3461               	retlw	97	;'a'
   401  0553  3472               	retlw	114	;'r'
   402  0554  3461               	retlw	97	;'a'
   403  0555  3420               	retlw	32	;' '
   404  0556  3461               	retlw	97	;'a'
   405  0557  3472               	retlw	114	;'r'
   406  0558  3472               	retlw	114	;'r'
   407  0559  3469               	retlw	105	;'i'
   408  055A  3462               	retlw	98	;'b'
   409  055B  3461               	retlw	97	;'a'
   410  055C  342E               	retlw	46	;'.'
   411  055D  3420               	retlw	32	;' '
   412  055E  340D               	retlw	13
   413  055F  3400               	retlw	0
   414  0560                     STR_7:
   415  0560  3428               	retlw	40	;'('
   416  0561  3462               	retlw	98	;'b'
   417  0562  3429               	retlw	41	;')'
   418  0563  3420               	retlw	32	;' '
   419  0564  344D               	retlw	77	;'M'
   420  0565  346F               	retlw	111	;'o'
   421  0566  3476               	retlw	118	;'v'
   422  0567  3465               	retlw	101	;'e'
   423  0568  3472               	retlw	114	;'r'
   424  0569  3420               	retlw	32	;' '
   425  056A  346F               	retlw	111	;'o'
   426  056B  346A               	retlw	106	;'j'
   427  056C  346F               	retlw	111	;'o'
   428  056D  3473               	retlw	115	;'s'
   429  056E  3420               	retlw	32	;' '
   430  056F  3461               	retlw	97	;'a'
   431  0570  3420               	retlw	32	;' '
   432  0571  346C               	retlw	108	;'l'
   433  0572  3461               	retlw	97	;'a'
   434  0573  3420               	retlw	32	;' '
   435  0574  3464               	retlw	100	;'d'
   436  0575  3465               	retlw	101	;'e'
   437  0576  3472               	retlw	114	;'r'
   438  0577  3465               	retlw	101	;'e'
   439  0578  3463               	retlw	99	;'c'
   440  0579  3468               	retlw	104	;'h'
   441  057A  3461               	retlw	97	;'a'
   442  057B  342E               	retlw	46	;'.'
   443  057C  3420               	retlw	32	;' '
   444  057D  340D               	retlw	13
   445  057E  3400               	retlw	0
   446  057F                     STR_8:
   447  057F  3428               	retlw	40	;'('
   448  0580  3463               	retlw	99	;'c'
   449  0581  3429               	retlw	41	;')'
   450  0582  3420               	retlw	32	;' '
   451  0583  344D               	retlw	77	;'M'
   452  0584  346F               	retlw	111	;'o'
   453  0585  3476               	retlw	118	;'v'
   454  0586  3465               	retlw	101	;'e'
   455  0587  3472               	retlw	114	;'r'
   456  0588  3420               	retlw	32	;' '
   457  0589  346F               	retlw	111	;'o'
   458  058A  346A               	retlw	106	;'j'
   459  058B  346F               	retlw	111	;'o'
   460  058C  3473               	retlw	115	;'s'
   461  058D  3420               	retlw	32	;' '
   462  058E  3470               	retlw	112	;'p'
   463  058F  3461               	retlw	97	;'a'
   464  0590  3472               	retlw	114	;'r'
   465  0591  3461               	retlw	97	;'a'
   466  0592  3420               	retlw	32	;' '
   467  0593  3461               	retlw	97	;'a'
   468  0594  3472               	retlw	114	;'r'
   469  0595  3472               	retlw	114	;'r'
   470  0596  3469               	retlw	105	;'i'
   471  0597  3462               	retlw	98	;'b'
   472  0598  3461               	retlw	97	;'a'
   473  0599  342E               	retlw	46	;'.'
   474  059A  3420               	retlw	32	;' '
   475  059B  340D               	retlw	13
   476  059C  3400               	retlw	0
   477  059D                     STR_1:
   478  059D  340D               	retlw	13
   479  059E  3451               	retlw	81	;'Q'
   480  059F  3475               	retlw	117	;'u'
   481  05A0  3465               	retlw	101	;'e'
   482  05A1  3420               	retlw	32	;' '
   483  05A2  3461               	retlw	97	;'a'
   484  05A3  3463               	retlw	99	;'c'
   485  05A4  3463               	retlw	99	;'c'
   486  05A5  3469               	retlw	105	;'i'
   487  05A6  346F               	retlw	111	;'o'
   488  05A7  346E               	retlw	110	;'n'
   489  05A8  3420               	retlw	32	;' '
   490  05A9  3464               	retlw	100	;'d'
   491  05AA  3465               	retlw	101	;'e'
   492  05AB  3473               	retlw	115	;'s'
   493  05AC  3465               	retlw	101	;'e'
   494  05AD  3461               	retlw	97	;'a'
   495  05AE  3420               	retlw	32	;' '
   496  05AF  3465               	retlw	101	;'e'
   497  05B0  346A               	retlw	106	;'j'
   498  05B1  3465               	retlw	101	;'e'
   499  05B2  3463               	retlw	99	;'c'
   500  05B3  3475               	retlw	117	;'u'
   501  05B4  3474               	retlw	116	;'t'
   502  05B5  3461               	retlw	97	;'a'
   503  05B6  3472               	retlw	114	;'r'
   504  05B7  343F               	retlw	63	;'?'
   505  05B8  3420               	retlw	32	;' '
   506  05B9  340D               	retlw	13
   507  05BA  3400               	retlw	0
   508  05BB                     STR_13:
   509  05BB  3428               	retlw	40	;'('
   510  05BC  3437               	retlw	55	;'7'
   511  05BD  3429               	retlw	41	;')'
   512  05BE  3420               	retlw	32	;' '
   513  05BF  344D               	retlw	77	;'M'
   514  05C0  346F               	retlw	111	;'o'
   515  05C1  3476               	retlw	118	;'v'
   516  05C2  3465               	retlw	101	;'e'
   517  05C3  3472               	retlw	114	;'r'
   518  05C4  3420               	retlw	32	;' '
   519  05C5  3463               	retlw	99	;'c'
   520  05C6  3465               	retlw	101	;'e'
   521  05C7  346A               	retlw	106	;'j'
   522  05C8  3461               	retlw	97	;'a'
   523  05C9  3420               	retlw	32	;' '
   524  05CA  3470               	retlw	112	;'p'
   525  05CB  3461               	retlw	97	;'a'
   526  05CC  3472               	retlw	114	;'r'
   527  05CD  3461               	retlw	97	;'a'
   528  05CE  3420               	retlw	32	;' '
   529  05CF  3461               	retlw	97	;'a'
   530  05D0  3462               	retlw	98	;'b'
   531  05D1  3461               	retlw	97	;'a'
   532  05D2  346A               	retlw	106	;'j'
   533  05D3  346F               	retlw	111	;'o'
   534  05D4  342E               	retlw	46	;'.'
   535  05D5  3420               	retlw	32	;' '
   536  05D6  340D               	retlw	13
   537  05D7  3400               	retlw	0
   538  05D8                     STR_15:
   539  05D8  3428               	retlw	40	;'('
   540  05D9  3439               	retlw	57	;'9'
   541  05DA  3429               	retlw	41	;')'
   542  05DB  3420               	retlw	32	;' '
   543  05DC  344D               	retlw	77	;'M'
   544  05DD  346F               	retlw	111	;'o'
   545  05DE  3476               	retlw	118	;'v'
   546  05DF  3465               	retlw	101	;'e'
   547  05E0  3472               	retlw	114	;'r'
   548  05E1  3420               	retlw	32	;' '
   549  05E2  3463               	retlw	99	;'c'
   550  05E3  3465               	retlw	101	;'e'
   551  05E4  346A               	retlw	106	;'j'
   552  05E5  3461               	retlw	97	;'a'
   553  05E6  3420               	retlw	32	;' '
   554  05E7  3470               	retlw	112	;'p'
   555  05E8  3461               	retlw	97	;'a'
   556  05E9  3472               	retlw	114	;'r'
   557  05EA  3461               	retlw	97	;'a'
   558  05EB  3420               	retlw	32	;' '
   559  05EC  3461               	retlw	97	;'a'
   560  05ED  3462               	retlw	98	;'b'
   561  05EE  3461               	retlw	97	;'a'
   562  05EF  346A               	retlw	106	;'j'
   563  05F0  346F               	retlw	111	;'o'
   564  05F1  342E               	retlw	46	;'.'
   565  05F2  3420               	retlw	32	;' '
   566  05F3  340D               	retlw	13
   567  05F4  3400               	retlw	0
   568  05F5                     STR_9:
   569  05F5  3428               	retlw	40	;'('
   570  05F6  3464               	retlw	100	;'d'
   571  05F7  3429               	retlw	41	;')'
   572  05F8  3420               	retlw	32	;' '
   573  05F9  344D               	retlw	77	;'M'
   574  05FA  346F               	retlw	111	;'o'
   575  05FB  3476               	retlw	118	;'v'
   576  05FC  3465               	retlw	101	;'e'
   577  05FD  3472               	retlw	114	;'r'
   578  05FE  3420               	retlw	32	;' '
   579  05FF  346F               	retlw	111	;'o'
   580  0600  346A               	retlw	106	;'j'
   581  0601  346F               	retlw	111	;'o'
   582  0602  3473               	retlw	115	;'s'
   583  0603  3420               	retlw	32	;' '
   584  0604  3470               	retlw	112	;'p'
   585  0605  3461               	retlw	97	;'a'
   586  0606  3472               	retlw	114	;'r'
   587  0607  3461               	retlw	97	;'a'
   588  0608  3420               	retlw	32	;' '
   589  0609  3461               	retlw	97	;'a'
   590  060A  3462               	retlw	98	;'b'
   591  060B  3461               	retlw	97	;'a'
   592  060C  346A               	retlw	106	;'j'
   593  060D  346F               	retlw	111	;'o'
   594  060E  342E               	retlw	46	;'.'
   595  060F  3420               	retlw	32	;' '
   596  0610  340D               	retlw	13
   597  0611  3400               	retlw	0
   598  0612                     STR_19:
   599  0612  340D               	retlw	13
   600  0613  3448               	retlw	72	;'H'
   601  0614  3461               	retlw	97	;'a'
   602  0615  3420               	retlw	32	;' '
   603  0616  3473               	retlw	115	;'s'
   604  0617  3461               	retlw	97	;'a'
   605  0618  346C               	retlw	108	;'l'
   606  0619  3469               	retlw	105	;'i'
   607  061A  3464               	retlw	100	;'d'
   608  061B  346F               	retlw	111	;'o'
   609  061C  3420               	retlw	32	;' '
   610  061D  3464               	retlw	100	;'d'
   611  061E  3465               	retlw	101	;'e'
   612  061F  346C               	retlw	108	;'l'
   613  0620  3420               	retlw	32	;' '
   614  0621  3455               	retlw	85	;'U'
   615  0622  3441               	retlw	65	;'A'
   616  0623  3452               	retlw	82	;'R'
   617  0624  3454               	retlw	84	;'T'
   618  0625  3420               	retlw	32	;' '
   619  0626  340D               	retlw	13
   620  0627  3400               	retlw	0
   621  0628                     STR_10:
   622  0628  340D               	retlw	13
   623  0629  3428               	retlw	40	;'('
   624  062A  3465               	retlw	101	;'e'
   625  062B  3429               	retlw	41	;')'
   626  062C  3420               	retlw	32	;' '
   627  062D  344D               	retlw	77	;'M'
   628  062E  346F               	retlw	111	;'o'
   629  062F  3476               	retlw	118	;'v'
   630  0630  3465               	retlw	101	;'e'
   631  0631  3472               	retlw	114	;'r'
   632  0632  3420               	retlw	32	;' '
   633  0633  3463               	retlw	99	;'c'
   634  0634  3465               	retlw	101	;'e'
   635  0635  346A               	retlw	106	;'j'
   636  0636  3461               	retlw	97	;'a'
   637  0637  3420               	retlw	32	;' '
   638  0638  3431               	retlw	49	;'1'
   639  0639  342E               	retlw	46	;'.'
   640  063A  3420               	retlw	32	;' '
   641  063B  340D               	retlw	13
   642  063C  3400               	retlw	0
   643  063D                     STR_16:
   644  063D  340D               	retlw	13
   645  063E  3428               	retlw	40	;'('
   646  063F  3467               	retlw	103	;'g'
   647  0640  3429               	retlw	41	;')'
   648  0641  3420               	retlw	32	;' '
   649  0642  3444               	retlw	68	;'D'
   650  0643  3465               	retlw	101	;'e'
   651  0644  3473               	retlw	115	;'s'
   652  0645  3465               	retlw	101	;'e'
   653  0646  346E               	retlw	110	;'n'
   654  0647  3472               	retlw	114	;'r'
   655  0648  3472               	retlw	114	;'r'
   656  0649  346F               	retlw	111	;'o'
   657  064A  346C               	retlw	108	;'l'
   658  064B  346C               	retlw	108	;'l'
   659  064C  3461               	retlw	97	;'a'
   660  064D  3472               	retlw	114	;'r'
   661  064E  342E               	retlw	46	;'.'
   662  064F  3420               	retlw	32	;' '
   663  0650  340D               	retlw	13
   664  0651  3400               	retlw	0
   665  0652                     STR_11:
   666  0652  3428               	retlw	40	;'('
   667  0653  3466               	retlw	102	;'f'
   668  0654  3429               	retlw	41	;')'
   669  0655  3420               	retlw	32	;' '
   670  0656  344D               	retlw	77	;'M'
   671  0657  346F               	retlw	111	;'o'
   672  0658  3476               	retlw	118	;'v'
   673  0659  3465               	retlw	101	;'e'
   674  065A  3472               	retlw	114	;'r'
   675  065B  3420               	retlw	32	;' '
   676  065C  3463               	retlw	99	;'c'
   677  065D  3465               	retlw	101	;'e'
   678  065E  346A               	retlw	106	;'j'
   679  065F  3461               	retlw	97	;'a'
   680  0660  3420               	retlw	32	;' '
   681  0661  3432               	retlw	50	;'2'
   682  0662  342E               	retlw	46	;'.'
   683  0663  3420               	retlw	32	;' '
   684  0664  340D               	retlw	13
   685  0665  3400               	retlw	0
   686  0666                     STR_5:
   687  0666  3428               	retlw	40	;'('
   688  0667  3434               	retlw	52	;'4'
   689  0668  3429               	retlw	41	;')'
   690  0669  3420               	retlw	32	;' '
   691  066A  3453               	retlw	83	;'S'
   692  066B  3461               	retlw	97	;'a'
   693  066C  346C               	retlw	108	;'l'
   694  066D  3469               	retlw	105	;'i'
   695  066E  3472               	retlw	114	;'r'
   696  066F  3420               	retlw	32	;' '
   697  0670  3464               	retlw	100	;'d'
   698  0671  3465               	retlw	101	;'e'
   699  0672  3420               	retlw	32	;' '
   700  0673  3455               	retlw	85	;'U'
   701  0674  3441               	retlw	65	;'A'
   702  0675  3452               	retlw	82	;'R'
   703  0676  3454               	retlw	84	;'T'
   704  0677  3420               	retlw	32	;' '
   705  0678  340D               	retlw	13
   706  0679  3400               	retlw	0
   707  067A                     STR_4:
   708  067A  3428               	retlw	40	;'('
   709  067B  3433               	retlw	51	;'3'
   710  067C  3429               	retlw	41	;')'
   711  067D  3420               	retlw	32	;' '
   712  067E  344D               	retlw	77	;'M'
   713  067F  344F               	retlw	79	;'O'
   714  0680  3456               	retlw	86	;'V'
   715  0681  3445               	retlw	69	;'E'
   716  0682  3452               	retlw	82	;'R'
   717  0683  3420               	retlw	32	;' '
   718  0684  344C               	retlw	76	;'L'
   719  0685  3445               	retlw	69	;'E'
   720  0686  344E               	retlw	78	;'N'
   721  0687  3447               	retlw	71	;'G'
   722  0688  3455               	retlw	85	;'U'
   723  0689  3441               	retlw	65	;'A'
   724  068A  3420               	retlw	32	;' '
   725  068B  340D               	retlw	13
   726  068C  3400               	retlw	0
   727  068D                     STR_3:
   728  068D  3428               	retlw	40	;'('
   729  068E  3432               	retlw	50	;'2'
   730  068F  3429               	retlw	41	;')'
   731  0690  3420               	retlw	32	;' '
   732  0691  344D               	retlw	77	;'M'
   733  0692  344F               	retlw	79	;'O'
   734  0693  3456               	retlw	86	;'V'
   735  0694  3445               	retlw	69	;'E'
   736  0695  3452               	retlw	82	;'R'
   737  0696  3420               	retlw	32	;' '
   738  0697  3443               	retlw	67	;'C'
   739  0698  3445               	retlw	69	;'E'
   740  0699  344A               	retlw	74	;'J'
   741  069A  3441               	retlw	65	;'A'
   742  069B  3453               	retlw	83	;'S'
   743  069C  3420               	retlw	32	;' '
   744  069D  340D               	retlw	13
   745  069E  3400               	retlw	0
   746  069F                     STR_2:
   747  069F  340D               	retlw	13
   748  06A0  3428               	retlw	40	;'('
   749  06A1  3431               	retlw	49	;'1'
   750  06A2  3429               	retlw	41	;')'
   751  06A3  3420               	retlw	32	;' '
   752  06A4  344D               	retlw	77	;'M'
   753  06A5  344F               	retlw	79	;'O'
   754  06A6  3456               	retlw	86	;'V'
   755  06A7  3445               	retlw	69	;'E'
   756  06A8  3452               	retlw	82	;'R'
   757  06A9  3420               	retlw	32	;' '
   758  06AA  344F               	retlw	79	;'O'
   759  06AB  344A               	retlw	74	;'J'
   760  06AC  344F               	retlw	79	;'O'
   761  06AD  3453               	retlw	83	;'S'
   762  06AE  3420               	retlw	32	;' '
   763  06AF  340D               	retlw	13
   764  06B0  3400               	retlw	0
   765  06B1                     STR_17:
   766  06B1  3428               	retlw	40	;'('
   767  06B2  3468               	retlw	104	;'h'
   768  06B3  3429               	retlw	41	;')'
   769  06B4  3420               	retlw	32	;' '
   770  06B5  3445               	retlw	69	;'E'
   771  06B6  346E               	retlw	110	;'n'
   772  06B7  3472               	retlw	114	;'r'
   773  06B8  3472               	retlw	114	;'r'
   774  06B9  346F               	retlw	111	;'o'
   775  06BA  346C               	retlw	108	;'l'
   776  06BB  346C               	retlw	108	;'l'
   777  06BC  3461               	retlw	97	;'a'
   778  06BD  3472               	retlw	114	;'r'
   779  06BE  342E               	retlw	46	;'.'
   780  06BF  3420               	retlw	32	;' '
   781  06C0  340D               	retlw	13
   782  06C1  3400               	retlw	0
   783  06C2                     STR_18:
   784  06C2  3428               	retlw	40	;'('
   785  06C3  3469               	retlw	105	;'i'
   786  06C4  3429               	retlw	41	;')'
   787  06C5  3420               	retlw	32	;' '
   788  06C6  3444               	retlw	68	;'D'
   789  06C7  3465               	retlw	101	;'e'
   790  06C8  3474               	retlw	116	;'t'
   791  06C9  3465               	retlw	101	;'e'
   792  06CA  3472               	retlw	114	;'r'
   793  06CB  342E               	retlw	46	;'.'
   794  06CC  3420               	retlw	32	;' '
   795  06CD  340D               	retlw	13
   796  06CE  3400               	retlw	0
   797                           
   798                           	psect	cinit
   799  0015                     start_initialization:	
   800                           ; #config settings
   801                           
   802  0015                     __initialization:
   803                           
   804                           ; Clear objects allocated to COMMON
   805  0015  01FA               	clrf	__pbssCOMMON& (0+127)
   806  0016  01FB               	clrf	(__pbssCOMMON+1)& (0+127)
   807  0017  01FC               	clrf	(__pbssCOMMON+2)& (0+127)
   808  0018  01FD               	clrf	(__pbssCOMMON+3)& (0+127)
   809                           
   810                           ; Clear objects allocated to BANK0
   811  0019  1283               	bcf	3,5	;RP0=0, select bank0
   812  001A  1303               	bcf	3,6	;RP1=0, select bank0
   813  001B  01A0               	clrf	__pbssBANK0& (0+127)
   814  001C  01A1               	clrf	(__pbssBANK0+1)& (0+127)
   815  001D  01A2               	clrf	(__pbssBANK0+2)& (0+127)
   816  001E  01A3               	clrf	(__pbssBANK0+3)& (0+127)
   817  001F  01A4               	clrf	(__pbssBANK0+4)& (0+127)
   818  0020  01A5               	clrf	(__pbssBANK0+5)& (0+127)
   819  0021  01A6               	clrf	(__pbssBANK0+6)& (0+127)
   820  0022  01A7               	clrf	(__pbssBANK0+7)& (0+127)
   821  0023                     end_of_initialization:	
   822                           ;End of C runtime variable initialization code
   823                           
   824  0023                     __end_of__initialization:
   825  0023  0183               	clrf	3
   826  0024  120A  118A  2FF2   	ljmp	_main	;jump to C main() function
   827                           
   828                           	psect	bssCOMMON
   829  007A                     __pbssCOMMON:
   830  007A                     _M3:
   831  007A                     	ds	1
   832  007B                     _M2:
   833  007B                     	ds	1
   834  007C                     _M1:
   835  007C                     	ds	1
   836  007D                     _M:
   837  007D                     	ds	1
   838                           
   839                           	psect	bssBANK0
   840  0020                     __pbssBANK0:
   841  0020                     _uart:
   842  0020                     	ds	2
   843  0022                     _sentido2:
   844  0022                     	ds	1
   845  0023                     _sentido:
   846  0023                     	ds	1
   847  0024                     _M7:
   848  0024                     	ds	1
   849  0025                     _M6:
   850  0025                     	ds	1
   851  0026                     _M5:
   852  0026                     	ds	1
   853  0027                     _M4:
   854  0027                     	ds	1
   855                           
   856                           	psect	cstackCOMMON
   857  0070                     __pcstackCOMMON:
   858  0070                     ?_servo1:
   859  0070                     ??_servo1:	
   860                           ; 1 bytes @ 0x0
   861                           
   862  0070                     ?_servo1_2:	
   863                           ; 1 bytes @ 0x0
   864                           
   865  0070                     ??_servo1_2:	
   866                           ; 1 bytes @ 0x0
   867                           
   868  0070                     ?_servo1_3:	
   869                           ; 1 bytes @ 0x0
   870                           
   871  0070                     ??_servo1_3:	
   872                           ; 1 bytes @ 0x0
   873                           
   874  0070                     ?_servo1_4:	
   875                           ; 1 bytes @ 0x0
   876                           
   877  0070                     ??_servo1_4:	
   878                           ; 1 bytes @ 0x0
   879                           
   880  0070                     ?_servo1_5:	
   881                           ; 1 bytes @ 0x0
   882                           
   883  0070                     ??_servo1_5:	
   884                           ; 1 bytes @ 0x0
   885                           
   886  0070                     ?_servo2:	
   887                           ; 1 bytes @ 0x0
   888                           
   889  0070                     ??_servo2:	
   890                           ; 1 bytes @ 0x0
   891                           
   892  0070                     ?_servo2_2:	
   893                           ; 1 bytes @ 0x0
   894                           
   895  0070                     ??_servo2_2:	
   896                           ; 1 bytes @ 0x0
   897                           
   898  0070                     ?_servo2_3:	
   899                           ; 1 bytes @ 0x0
   900                           
   901  0070                     ??_servo2_3:	
   902                           ; 1 bytes @ 0x0
   903                           
   904  0070                     ?_servo2_4:	
   905                           ; 1 bytes @ 0x0
   906                           
   907  0070                     ??_servo2_4:	
   908                           ; 1 bytes @ 0x0
   909                           
   910  0070                     ?_servo2_5:	
   911                           ; 1 bytes @ 0x0
   912                           
   913  0070                     ??_servo2_5:	
   914                           ; 1 bytes @ 0x0
   915                           
   916  0070                     ?_servo3:	
   917                           ; 1 bytes @ 0x0
   918                           
   919  0070                     ??_servo3:	
   920                           ; 1 bytes @ 0x0
   921                           
   922  0070                     ?_servo3_2:	
   923                           ; 1 bytes @ 0x0
   924                           
   925  0070                     ??_servo3_2:	
   926                           ; 1 bytes @ 0x0
   927                           
   928  0070                     ?_servo3_3:	
   929                           ; 1 bytes @ 0x0
   930                           
   931  0070                     ??_servo3_3:	
   932                           ; 1 bytes @ 0x0
   933                           
   934  0070                     ?_servo3_4:	
   935                           ; 1 bytes @ 0x0
   936                           
   937  0070                     ??_servo3_4:	
   938                           ; 1 bytes @ 0x0
   939                           
   940  0070                     ?_servo3_5:	
   941                           ; 1 bytes @ 0x0
   942                           
   943  0070                     ??_servo3_5:	
   944                           ; 1 bytes @ 0x0
   945                           
   946  0070                     ?_servo4:	
   947                           ; 1 bytes @ 0x0
   948                           
   949  0070                     ??_servo4:	
   950                           ; 1 bytes @ 0x0
   951                           
   952  0070                     ?_servo4_2:	
   953                           ; 1 bytes @ 0x0
   954                           
   955  0070                     ??_servo4_2:	
   956                           ; 1 bytes @ 0x0
   957                           
   958  0070                     ?_servo4_3:	
   959                           ; 1 bytes @ 0x0
   960                           
   961  0070                     ??_servo4_3:	
   962                           ; 1 bytes @ 0x0
   963                           
   964  0070                     ?_servo4_4:	
   965                           ; 1 bytes @ 0x0
   966                           
   967  0070                     ??_servo4_4:	
   968                           ; 1 bytes @ 0x0
   969                           
   970  0070                     ?_servo4_5:	
   971                           ; 1 bytes @ 0x0
   972                           
   973  0070                     ??_servo4_5:	
   974                           ; 1 bytes @ 0x0
   975                           
   976  0070                     ?_escribir_eeprom:	
   977                           ; 1 bytes @ 0x0
   978                           
   979  0070                     ?_leer_eeprom:	
   980                           ; 1 bytes @ 0x0
   981                           
   982  0070                     ??_leer_eeprom:	
   983                           ; 1 bytes @ 0x0
   984                           
   985  0070                     ?_nuevo_bit_banging:	
   986                           ; 1 bytes @ 0x0
   987                           
   988  0070                     ?_menu:	
   989                           ; 1 bytes @ 0x0
   990                           
   991  0070                     ?_setup:	
   992                           ; 1 bytes @ 0x0
   993                           
   994  0070                     ?_isr:	
   995                           ; 1 bytes @ 0x0
   996                           
   997  0070                     ?_main:	
   998                           ; 1 bytes @ 0x0
   999                           
  1000  0070                     ?_putch:	
  1001                           ; 1 bytes @ 0x0
  1002                           
  1003  0070                     ??_putch:	
  1004                           ; 1 bytes @ 0x0
  1005                           
  1006  0070                     ?___awdiv:	
  1007                           ; 1 bytes @ 0x0
  1008                           
  1009  0070                     escribir_eeprom@direccion:	
  1010                           ; 2 bytes @ 0x0
  1011                           
  1012  0070                     putch@info:	
  1013                           ; 1 bytes @ 0x0
  1014                           
  1015  0070                     ___awdiv@divisor:	
  1016                           ; 1 bytes @ 0x0
  1017                           
  1018                           
  1019                           ; 2 bytes @ 0x0
  1020  0070                     	ds	1
  1021  0071                     ??_escribir_eeprom:
  1022  0071                     ?_printf:	
  1023                           ; 1 bytes @ 0x1
  1024                           
  1025  0071                     leer_eeprom@direccion:	
  1026                           ; 2 bytes @ 0x1
  1027                           
  1028  0071                     escribir_eeprom@data:	
  1029                           ; 1 bytes @ 0x1
  1030                           
  1031  0071                     printf@f:	
  1032                           ; 1 bytes @ 0x1
  1033                           
  1034                           
  1035                           ; 2 bytes @ 0x1
  1036  0071                     	ds	1
  1037  0072                     ??_nuevo_bit_banging:
  1038  0072                     leer_eeprom@data:	
  1039                           ; 1 bytes @ 0x2
  1040                           
  1041  0072                     ___awdiv@dividend:	
  1042                           ; 1 bytes @ 0x2
  1043                           
  1044                           
  1045                           ; 2 bytes @ 0x2
  1046  0072                     	ds	1
  1047  0073                     ??_printf:
  1048                           
  1049                           ; 1 bytes @ 0x3
  1050  0073                     	ds	1
  1051  0074                     ??___awdiv:
  1052                           
  1053                           ; 1 bytes @ 0x4
  1054  0074                     	ds	1
  1055  0075                     ___awdiv@counter:
  1056                           
  1057                           ; 1 bytes @ 0x5
  1058  0075                     	ds	1
  1059  0076                     printf@ap:
  1060  0076                     ___awdiv@sign:	
  1061                           ; 1 bytes @ 0x6
  1062                           
  1063                           
  1064                           ; 1 bytes @ 0x6
  1065  0076                     	ds	1
  1066  0077                     printf@c:
  1067  0077                     ___awdiv@quotient:	
  1068                           ; 1 bytes @ 0x7
  1069                           
  1070                           
  1071                           ; 2 bytes @ 0x7
  1072  0077                     	ds	1
  1073  0078                     ??_menu:
  1074                           
  1075                           ; 1 bytes @ 0x8
  1076  0078                     	ds	2
  1077                           
  1078                           	psect	cstackBANK0
  1079  0028                     __pcstackBANK0:
  1080  0028                     ??_isr:
  1081                           
  1082                           ; 1 bytes @ 0x0
  1083  0028                     	ds	7
  1084  002F                     ??_setup:
  1085  002F                     ??_main:	
  1086                           ; 1 bytes @ 0x7
  1087                           
  1088                           
  1089                           	psect	maintext
  1090  07F2                     __pmaintext:	
  1091                           ; 1 bytes @ 0x7
  1092 ;;
  1093 ;;Main: autosize = 0, tempsize = 0, incstack = 0, save=0
  1094 ;;
  1095 ;; *************** function _main *****************
  1096 ;; Defined at:
  1097 ;;		line 267 in file "pro2.c"
  1098 ;; Parameters:    Size  Location     Type
  1099 ;;		None
  1100 ;; Auto vars:     Size  Location     Type
  1101 ;;		None
  1102 ;; Return value:  Size  Location     Type
  1103 ;;                  1    wreg      void 
  1104 ;; Registers used:
  1105 ;;		wreg, status,2, status,0, pclath, cstack
  1106 ;; Tracked objects:
  1107 ;;		On entry : B00/0
  1108 ;;		On exit  : 0/0
  1109 ;;		Unchanged: 0/0
  1110 ;; Data sizes:     COMMON   BANK0   BANK1   BANK3   BANK2
  1111 ;;      Params:         0       0       0       0       0
  1112 ;;      Locals:         0       0       0       0       0
  1113 ;;      Temps:          0       0       0       0       0
  1114 ;;      Totals:         0       0       0       0       0
  1115 ;;Total ram usage:        0 bytes
  1116 ;; Hardware stack levels required when called:    5
  1117 ;; This function calls:
  1118 ;;		_setup
  1119 ;; This function is called by:
  1120 ;;		Startup code after reset
  1121 ;; This function uses a non-reentrant model
  1122 ;;
  1123                           
  1124                           
  1125                           ;psect for function _main
  1126  07F2                     _main:
  1127  07F2                     l2442:	
  1128                           ;incstack = 0
  1129                           ; Regs used in _main: [wreg+status,2+status,0+pclath+cstack]
  1130                           
  1131                           
  1132                           ;pro2.c: 269:     OSCCONbits.SCS = 1;
  1133  07F2  120A  118A  26CF  120A  118A  	fcall	_setup
  1134  07F7                     l2444:
  1135                           
  1136                           ;pro2.c: 272: ;pro2.c: 273:     OPTION_REGbits.nRBPU = 0;
  1137  07F7  1283               	bcf	3,5	;RP0=0, select bank0
  1138  07F8  1303               	bcf	3,6	;RP1=0, select bank0
  1139  07F9  149F               	bsf	31,1	;volatile
  1140  07FA  2FF7               	goto	l2444
  1141  07FB  120A  118A  2812   	ljmp	start
  1142  07FE                     __end_of_main:
  1143                           
  1144                           	psect	text1
  1145  06CF                     __ptext1:	
  1146 ;; *************** function _setup *****************
  1147 ;; Defined at:
  1148 ;;		line 279 in file "pro2.c"
  1149 ;; Parameters:    Size  Location     Type
  1150 ;;		None
  1151 ;; Auto vars:     Size  Location     Type
  1152 ;;		None
  1153 ;; Return value:  Size  Location     Type
  1154 ;;                  1    wreg      void 
  1155 ;; Registers used:
  1156 ;;		wreg, status,2, status,0
  1157 ;; Tracked objects:
  1158 ;;		On entry : 0/0
  1159 ;;		On exit  : 0/0
  1160 ;;		Unchanged: 0/0
  1161 ;; Data sizes:     COMMON   BANK0   BANK1   BANK3   BANK2
  1162 ;;      Params:         0       0       0       0       0
  1163 ;;      Locals:         0       0       0       0       0
  1164 ;;      Temps:          0       0       0       0       0
  1165 ;;      Totals:         0       0       0       0       0
  1166 ;;Total ram usage:        0 bytes
  1167 ;; Hardware stack levels used:    1
  1168 ;; Hardware stack levels required when called:    4
  1169 ;; This function calls:
  1170 ;;		Nothing
  1171 ;; This function is called by:
  1172 ;;		_main
  1173 ;; This function uses a non-reentrant model
  1174 ;;
  1175                           
  1176                           
  1177                           ;psect for function _setup
  1178  06CF                     _setup:
  1179  06CF                     l2102:	
  1180                           ;incstack = 0
  1181                           ; Regs used in _setup: [wreg+status,2+status,0]
  1182                           
  1183                           
  1184                           ;pro2.c: 281:     ADCON0bits.CHS = 0;
  1185  06CF  301F               	movlw	31
  1186  06D0  1683               	bsf	3,5	;RP0=1, select bank3
  1187  06D1  1703               	bsf	3,6	;RP1=1, select bank3
  1188  06D2  0088               	movwf	8	;volatile
  1189  06D3                     l2104:
  1190                           
  1191                           ;pro2.c: 282: 
  1192  06D3  0189               	clrf	9	;volatile
  1193  06D4                     l2106:
  1194                           
  1195                           ;pro2.c: 284:     ADCON0bits.ADCS0 = 0;
  1196  06D4  30FF               	movlw	255
  1197  06D5  1683               	bsf	3,5	;RP0=1, select bank1
  1198  06D6  1303               	bcf	3,6	;RP1=0, select bank1
  1199  06D7  0085               	movwf	5	;volatile
  1200  06D8                     l2108:
  1201                           
  1202                           ;pro2.c: 285: 
  1203  06D8  1006               	bcf	6,0	;volatile
  1204  06D9                     l2110:
  1205                           
  1206                           ;pro2.c: 286:     ADCON0bits.ADON = 1;
  1207  06D9  1086               	bcf	6,1	;volatile
  1208  06DA                     l2112:
  1209                           
  1210                           ;pro2.c: 287: 
  1211  06DA  1106               	bcf	6,2	;volatile
  1212  06DB                     l2114:
  1213                           
  1214                           ;pro2.c: 288:     ADCON1bits.ADFM = 0;
  1215  06DB  1186               	bcf	6,3	;volatile
  1216  06DC                     l2116:
  1217                           
  1218                           ;pro2.c: 289:     ADCON1bits.VCFG0 = 0;
  1219  06DC  1606               	bsf	6,4	;volatile
  1220  06DD                     l2118:
  1221                           
  1222                           ;pro2.c: 290:     ADCON1bits.VCFG1 = 0;
  1223  06DD  1686               	bsf	6,5	;volatile
  1224  06DE                     l2120:
  1225                           
  1226                           ;pro2.c: 291: 
  1227  06DE  1706               	bsf	6,6	;volatile
  1228  06DF                     l2122:
  1229                           
  1230                           ;pro2.c: 292: 
  1231  06DF  1408               	bsf	8,0	;volatile
  1232  06E0                     l2124:
  1233                           
  1234                           ;pro2.c: 293:     TRISCbits.TRISC2 = 1;
  1235  06E0  1488               	bsf	8,1	;volatile
  1236  06E1                     l2126:
  1237                           
  1238                           ;pro2.c: 294:     TRISCbits.TRISC1 = 1;
  1239  06E1  1508               	bsf	8,2	;volatile
  1240  06E2                     l2128:
  1241                           
  1242                           ;pro2.c: 295:     PR2 = 250;
  1243  06E2  1009               	bcf	9,0	;volatile
  1244  06E3                     l2130:
  1245                           
  1246                           ;pro2.c: 296:     CCP1CONbits.P1M = 0;
  1247  06E3  1089               	bcf	9,1	;volatile
  1248  06E4                     l2132:
  1249                           
  1250                           ;pro2.c: 297:     CCP1CONbits.CCP1M = 0b00001100;
  1251  06E4  1109               	bcf	9,2	;volatile
  1252                           
  1253                           ;pro2.c: 299:     CCP2CONbits.DC2B1 = 0;
  1254  06E5  1283               	bcf	3,5	;RP0=0, select bank0
  1255  06E6  1303               	bcf	3,6	;RP1=0, select bank0
  1256  06E7  0185               	clrf	5	;volatile
  1257                           
  1258                           ;pro2.c: 300:     CCP2CONbits.CCP2M = 0b1111;
  1259  06E8  0188               	clrf	8	;volatile
  1260                           
  1261                           ;pro2.c: 301: 
  1262  06E9  0186               	clrf	6	;volatile
  1263                           
  1264                           ;pro2.c: 302:     CCPR1L = 0x0f;
  1265  06EA  0189               	clrf	9	;volatile
  1266                           
  1267                           ;pro2.c: 303:     CCP1CONbits.DC1B = 0;
  1268  06EB  0187               	clrf	7	;volatile
  1269  06EC                     l2134:
  1270                           
  1271                           ;pro2.c: 306:     PIR1bits.TMR2IF = 0;
  1272  06EC  1683               	bsf	3,5	;RP0=1, select bank1
  1273  06ED  1303               	bcf	3,6	;RP1=0, select bank1
  1274  06EE  170F               	bsf	15,6	;volatile
  1275  06EF                     l2136:
  1276                           
  1277                           ;pro2.c: 307:     T2CONbits.T2CKPS = 0b11;
  1278  06EF  168F               	bsf	15,5	;volatile
  1279  06F0                     l2138:
  1280                           
  1281                           ;pro2.c: 308:     T2CONbits.TMR2ON = 1;
  1282  06F0  160F               	bsf	15,4	;volatile
  1283  06F1                     l2140:
  1284                           
  1285                           ;pro2.c: 309: 
  1286  06F1  140F               	bsf	15,0	;volatile
  1287  06F2                     l2142:
  1288                           
  1289                           ;pro2.c: 313:     TRISCbits.TRISC2 = 0;
  1290  06F2  1381               	bcf	1,7	;volatile
  1291  06F3                     l2144:
  1292                           
  1293                           ;pro2.c: 314:     TRISCbits.TRISC1 = 0;
  1294  06F3  3070               	movlw	112
  1295  06F4  0095               	movwf	21	;volatile
  1296  06F5                     l2146:
  1297                           
  1298                           ;pro2.c: 315: 
  1299  06F5  1616               	bsf	22,4	;volatile
  1300  06F6                     l2148:
  1301                           
  1302                           ;pro2.c: 316: 
  1303  06F6  1696               	bsf	22,5	;volatile
  1304  06F7                     l2150:
  1305                           
  1306                           ;pro2.c: 317:     TXSTAbits.BRGH = 1;
  1307  06F7  1716               	bsf	22,6	;volatile
  1308  06F8                     l2152:
  1309                           
  1310                           ;pro2.c: 321:     RCSTAbits.SPEN = 1;
  1311  06F8  30C3               	movlw	-61
  1312  06F9  1283               	bcf	3,5	;RP0=0, select bank0
  1313  06FA  1303               	bcf	3,6	;RP1=0, select bank0
  1314  06FB  059F               	andwf	31,f	;volatile
  1315  06FC                     l2154:
  1316                           
  1317                           ;pro2.c: 323: 
  1318  06FC  179F               	bsf	31,7	;volatile
  1319  06FD                     l2156:
  1320                           
  1321                           ;pro2.c: 324:     TXSTAbits.TXEN = 1;
  1322  06FD  131F               	bcf	31,6	;volatile
  1323  06FE                     l2158:
  1324                           
  1325                           ;pro2.c: 326:     RCSTAbits.RX9 = 0;
  1326  06FE  141F               	bsf	31,0	;volatile
  1327  06FF                     l2160:
  1328                           
  1329                           ;pro2.c: 328:     SPBRG = 207;
  1330  06FF  1683               	bsf	3,5	;RP0=1, select bank1
  1331  0700  1303               	bcf	3,6	;RP1=0, select bank1
  1332  0701  139F               	bcf	31,7	;volatile
  1333  0702                     l2162:
  1334                           
  1335                           ;pro2.c: 329:     SPBRGH = 0;
  1336  0702  121F               	bcf	31,4	;volatile
  1337  0703                     l2164:
  1338                           
  1339                           ;pro2.c: 330: 
  1340  0703  129F               	bcf	31,5	;volatile
  1341  0704                     l2166:
  1342                           
  1343                           ;pro2.c: 333:     PIR1bits.ADIF = 0;
  1344  0704  1507               	bsf	7,2	;volatile
  1345  0705                     l2168:
  1346                           
  1347                           ;pro2.c: 334:     PIE1bits.ADIE = 1;
  1348  0705  1487               	bsf	7,1	;volatile
  1349  0706                     l2170:
  1350                           
  1351                           ;pro2.c: 335:     INTCONbits.PEIE = 1;
  1352  0706  30FA               	movlw	250
  1353  0707  0092               	movwf	18	;volatile
  1354  0708                     l2172:
  1355                           
  1356                           ;pro2.c: 336:     INTCONbits.RBIF = 1;
  1357  0708  303F               	movlw	-193
  1358  0709  1283               	bcf	3,5	;RP0=0, select bank0
  1359  070A  1303               	bcf	3,6	;RP1=0, select bank0
  1360  070B  0597               	andwf	23,f	;volatile
  1361  070C                     l2174:
  1362                           
  1363                           ;pro2.c: 337:     INTCONbits.RBIE = 1;
  1364  070C  0817               	movf	23,w	;volatile
  1365  070D  39F0               	andlw	-16
  1366  070E  380C               	iorlw	12
  1367  070F  0097               	movwf	23	;volatile
  1368  0710                     l2176:
  1369                           
  1370                           ;pro2.c: 338: }
  1371  0710  121D               	bcf	29,4	;volatile
  1372  0711                     l2178:
  1373                           
  1374                           ;pro2.c: 339: 
  1375  0711  129D               	bcf	29,5	;volatile
  1376  0712                     l2180:
  1377                           
  1378                           ;pro2.c: 340: void servo1(void)
  1379  0712  300F               	movlw	15
  1380  0713  049D               	iorwf	29,f	;volatile
  1381  0714                     l2182:
  1382                           
  1383                           ;pro2.c: 342:             PORTBbits.RB0 = 1;
  1384  0714  300F               	movlw	15
  1385  0715  0095               	movwf	21	;volatile
  1386  0716                     l2184:
  1387                           
  1388                           ;pro2.c: 343:             _delay((unsigned long)((0.7)*(8000000/4000.0)));
  1389  0716  30CF               	movlw	-49
  1390  0717  0597               	andwf	23,f	;volatile
  1391  0718                     l2186:
  1392                           
  1393                           ;pro2.c: 344:             PORTBbits.RB0 = 0;
  1394  0718  300F               	movlw	15
  1395  0719  009B               	movwf	27	;volatile
  1396  071A                     l2188:
  1397                           
  1398                           ;pro2.c: 346: }
  1399  071A  108C               	bcf	12,1	;volatile
  1400  071B                     l2190:
  1401                           
  1402                           ;pro2.c: 347: void servo1_2(void)
  1403  071B  3003               	movlw	3
  1404  071C  0492               	iorwf	18,f	;volatile
  1405  071D                     l2192:
  1406                           
  1407                           ;pro2.c: 348: {
  1408  071D  1512               	bsf	18,2	;volatile
  1409  071E                     l232:	
  1410                           ;pro2.c: 350:             _delay((unsigned long)((1.25)*(8000000/4000.0)));
  1411                           
  1412  071E  1C8C               	btfss	12,1	;volatile
  1413  071F  2F21               	goto	u1801
  1414  0720  2F22               	goto	u1800
  1415  0721                     u1801:
  1416  0721  2F1E               	goto	l232
  1417  0722                     u1800:
  1418  0722                     l234:
  1419                           
  1420                           ;pro2.c: 351:             PORTBbits.RB0 = 0;
  1421  0722  108C               	bcf	12,1	;volatile
  1422                           
  1423                           ;pro2.c: 353: }
  1424  0723  1683               	bsf	3,5	;RP0=1, select bank1
  1425  0724  1303               	bcf	3,6	;RP1=0, select bank1
  1426  0725  1107               	bcf	7,2	;volatile
  1427                           
  1428                           ;pro2.c: 354: void servo1_3(void)
  1429  0726  1087               	bcf	7,1	;volatile
  1430                           
  1431                           ;pro2.c: 357:             _delay((unsigned long)((1.5)*(8000000/4000.0)));
  1432  0727  1518               	bsf	24,2	;volatile
  1433                           
  1434                           ;pro2.c: 358:             PORTBbits.RB0 = 0;
  1435  0728  1683               	bsf	3,5	;RP0=1, select bank3
  1436  0729  1703               	bsf	3,6	;RP1=1, select bank3
  1437  072A  1587               	bsf	7,3	;volatile
  1438                           
  1439                           ;pro2.c: 360: }
  1440  072B  1683               	bsf	3,5	;RP0=1, select bank1
  1441  072C  1303               	bcf	3,6	;RP1=0, select bank1
  1442  072D  1218               	bcf	24,4	;volatile
  1443                           
  1444                           ;pro2.c: 361: void servo1_4(void)
  1445  072E  1283               	bcf	3,5	;RP0=0, select bank0
  1446  072F  1303               	bcf	3,6	;RP1=0, select bank0
  1447  0730  1798               	bsf	24,7	;volatile
  1448                           
  1449                           ;pro2.c: 362: {
  1450  0731  1618               	bsf	24,4	;volatile
  1451                           
  1452                           ;pro2.c: 364:             _delay((unsigned long)((1.75)*(8000000/4000.0)));
  1453  0732  1683               	bsf	3,5	;RP0=1, select bank1
  1454  0733  1303               	bcf	3,6	;RP1=0, select bank1
  1455  0734  1698               	bsf	24,5	;volatile
  1456                           
  1457                           ;pro2.c: 366:             _delay((unsigned long)((18.25)*(8000000/4000.0)));
  1458  0735  1283               	bcf	3,5	;RP0=0, select bank0
  1459  0736  1303               	bcf	3,6	;RP1=0, select bank0
  1460  0737  1318               	bcf	24,6	;volatile
  1461  0738                     l2194:
  1462                           
  1463                           ;pro2.c: 368: void servo1_5(void)
  1464  0738  30CF               	movlw	207
  1465  0739  1683               	bsf	3,5	;RP0=1, select bank1
  1466  073A  1303               	bcf	3,6	;RP1=0, select bank1
  1467  073B  0099               	movwf	25	;volatile
  1468  073C                     l2196:
  1469                           
  1470                           ;pro2.c: 369: {
  1471  073C  019A               	clrf	26	;volatile
  1472  073D                     l2198:
  1473                           
  1474                           ;pro2.c: 372:             PORTBbits.RB0 = 0;
  1475  073D  178B               	bsf	11,7	;volatile
  1476  073E                     l2200:
  1477                           
  1478                           ;pro2.c: 373:             _delay((unsigned long)((18)*(8000000/4000.0)));
  1479  073E  1283               	bcf	3,5	;RP0=0, select bank0
  1480  073F  1303               	bcf	3,6	;RP1=0, select bank0
  1481  0740  130C               	bcf	12,6	;volatile
  1482  0741                     l2202:
  1483                           
  1484                           ;pro2.c: 374: }
  1485  0741  1683               	bsf	3,5	;RP0=1, select bank1
  1486  0742  1303               	bcf	3,6	;RP1=0, select bank1
  1487  0743  170C               	bsf	12,6	;volatile
  1488  0744                     l2204:
  1489                           
  1490                           ;pro2.c: 375: 
  1491  0744  170B               	bsf	11,6	;volatile
  1492  0745                     l2206:
  1493                           
  1494                           ;pro2.c: 376: void servo2(void)
  1495  0745  140B               	bsf	11,0	;volatile
  1496  0746                     l2208:
  1497                           
  1498                           ;pro2.c: 377: {
  1499  0746  158B               	bsf	11,3	;volatile
  1500  0747                     l235:
  1501  0747  0008               	return
  1502  0748                     __end_of_setup:
  1503                           
  1504                           	psect	text2
  1505  0027                     __ptext2:	
  1506 ;; *************** function _isr *****************
  1507 ;; Defined at:
  1508 ;;		line 96 in file "pro2.c"
  1509 ;; Parameters:    Size  Location     Type
  1510 ;;		None
  1511 ;; Auto vars:     Size  Location     Type
  1512 ;;		None
  1513 ;; Return value:  Size  Location     Type
  1514 ;;                  1    wreg      void 
  1515 ;; Registers used:
  1516 ;;		wreg, fsr0l, fsr0h, status,2, status,0, btemp+1, pclath, cstack
  1517 ;; Tracked objects:
  1518 ;;		On entry : 0/0
  1519 ;;		On exit  : 0/0
  1520 ;;		Unchanged: 0/0
  1521 ;; Data sizes:     COMMON   BANK0   BANK1   BANK3   BANK2
  1522 ;;      Params:         0       0       0       0       0
  1523 ;;      Locals:         0       0       0       0       0
  1524 ;;      Temps:          0       7       0       0       0
  1525 ;;      Totals:         0       7       0       0       0
  1526 ;;Total ram usage:        7 bytes
  1527 ;; Hardware stack levels used:    1
  1528 ;; Hardware stack levels required when called:    3
  1529 ;; This function calls:
  1530 ;;		___awdiv
  1531 ;;		_escribir_eeprom
  1532 ;;		_leer_eeprom
  1533 ;;		_menu
  1534 ;;		_nuevo_bit_banging
  1535 ;;		_servo1
  1536 ;;		_servo1_2
  1537 ;;		_servo1_3
  1538 ;;		_servo1_4
  1539 ;;		_servo1_5
  1540 ;;		_servo2
  1541 ;;		_servo2_2
  1542 ;;		_servo2_3
  1543 ;;		_servo2_4
  1544 ;;		_servo2_5
  1545 ;;		_servo3
  1546 ;;		_servo3_2
  1547 ;;		_servo3_3
  1548 ;;		_servo3_4
  1549 ;;		_servo3_5
  1550 ;;		_servo4
  1551 ;;		_servo4_2
  1552 ;;		_servo4_3
  1553 ;;		_servo4_4
  1554 ;;		_servo4_5
  1555 ;; This function is called by:
  1556 ;;		Interrupt level 1
  1557 ;; This function uses a non-reentrant model
  1558 ;;
  1559                           
  1560                           
  1561                           ;psect for function _isr
  1562  0027                     _isr:
  1563  0027                     i1l2254:
  1564                           
  1565                           ;pro2.c: 98:             if((M<=203)&&(M>=153))
  1566  0027  1F0C               	btfss	12,6	;volatile
  1567  0028  282A               	goto	u191_21
  1568  0029  282B               	goto	u191_20
  1569  002A                     u191_21:
  1570  002A  29EE               	goto	i1l2408
  1571  002B                     u191_20:
  1572  002B                     i1l2256:
  1573                           
  1574                           ;pro2.c: 99:             {;pro2.c: 100:                servo1_4();
  1575  002B  0C1F               	rrf	31,w	;volatile
  1576  002C  00A8               	movwf	??_isr
  1577  002D  0C28               	rrf	??_isr,w
  1578  002E  390F               	andlw	15
  1579  002F  3A00               	xorlw	0
  1580  0030  1D03               	skipz
  1581  0031  2833               	goto	u192_21
  1582  0032  2834               	goto	u192_20
  1583  0033                     u192_21:
  1584  0033  287B               	goto	i1l2276
  1585  0034                     u192_20:
  1586  0034                     i1l2258:
  1587                           
  1588                           ;pro2.c: 101:             };pro2.c: 102:             if(M>=204)
  1589  0034  081F               	movf	31,w	;volatile
  1590  0035  39C3               	andlw	-61
  1591  0036  3804               	iorlw	4
  1592  0037  009F               	movwf	31	;volatile
  1593  0038                     i1l2260:
  1594                           
  1595                           ;pro2.c: 103:             {
  1596  0038  1808               	btfsc	8,0	;volatile
  1597  0039  283B               	goto	u193_21
  1598  003A  283C               	goto	u193_20
  1599  003B                     u193_21:
  1600  003B  2854               	goto	i1l181
  1601  003C                     u193_20:
  1602  003C                     i1l2262:
  1603                           
  1604                           ;pro2.c: 104:                servo1_5();;pro2.c: 105:             }
  1605  003C  01A3               	clrf	_sentido
  1606  003D  0AA3               	incf	_sentido,f
  1607  003E                     i1l2264:
  1608                           
  1609                           ;pro2.c: 106:         }
  1610  003E  0195               	clrf	21	;volatile
  1611  003F                     i1l2266:
  1612                           
  1613                           ;pro2.c: 107:         else if (ADCON0bits.CHS == 2)
  1614  003F  3004               	movlw	4
  1615  0040  00F0               	movwf	___awdiv@divisor
  1616  0041  3000               	movlw	0
  1617  0042  00F1               	movwf	___awdiv@divisor+1
  1618  0043  081E               	movf	30,w	;volatile
  1619  0044  00A8               	movwf	??_isr
  1620  0045  01A9               	clrf	??_isr+1
  1621  0046  0828               	movf	??_isr,w
  1622  0047  00F2               	movwf	___awdiv@dividend
  1623  0048  0829               	movf	??_isr+1,w
  1624  0049  00F3               	movwf	___awdiv@dividend+1
  1625  004A  120A  118A  2748  120A  118A  	fcall	___awdiv
  1626  004F  0870               	movf	?___awdiv,w
  1627  0050  1283               	bcf	3,5	;RP0=0, select bank0
  1628  0051  1303               	bcf	3,6	;RP1=0, select bank0
  1629  0052  009B               	movwf	27	;volatile
  1630                           
  1631                           ;pro2.c: 108:         {
  1632  0053  29E4               	goto	i1l2404
  1633  0054                     i1l181:	
  1634                           ;pro2.c: 109:             M1 = ADRESH;
  1635                           
  1636  0054  1888               	btfsc	8,1	;volatile
  1637  0055  2857               	goto	u194_21
  1638  0056  2858               	goto	u194_20
  1639  0057                     u194_21:
  1640  0057  2872               	goto	i1l183
  1641  0058                     u194_20:
  1642  0058                     i1l2268:
  1643                           
  1644                           ;pro2.c: 110:             ADCON0bits.CHS = 3;;pro2.c: 111:             if(M1<=50)
  1645  0058  3002               	movlw	2
  1646  0059  00A8               	movwf	??_isr
  1647  005A  0828               	movf	??_isr,w
  1648  005B  00A3               	movwf	_sentido
  1649  005C                     i1l2270:
  1650                           
  1651                           ;pro2.c: 112:             {
  1652  005C  3004               	movlw	4
  1653  005D  00F0               	movwf	___awdiv@divisor
  1654  005E  3000               	movlw	0
  1655  005F  00F1               	movwf	___awdiv@divisor+1
  1656  0060  081E               	movf	30,w	;volatile
  1657  0061  00A8               	movwf	??_isr
  1658  0062  01A9               	clrf	??_isr+1
  1659  0063  0828               	movf	??_isr,w
  1660  0064  00F2               	movwf	___awdiv@dividend
  1661  0065  0829               	movf	??_isr+1,w
  1662  0066  00F3               	movwf	___awdiv@dividend+1
  1663  0067  120A  118A  2748  120A  118A  	fcall	___awdiv
  1664  006C  0870               	movf	?___awdiv,w
  1665  006D  1283               	bcf	3,5	;RP0=0, select bank0
  1666  006E  1303               	bcf	3,6	;RP1=0, select bank0
  1667  006F  0095               	movwf	21	;volatile
  1668  0070                     i1l2272:
  1669                           
  1670                           ;pro2.c: 113:                servo2();
  1671  0070  019B               	clrf	27	;volatile
  1672                           
  1673                           ;pro2.c: 114:             }
  1674  0071  29E4               	goto	i1l2404
  1675  0072                     i1l183:	
  1676                           ;pro2.c: 115:             if((M1<=101)&&(M1>=51))
  1677                           
  1678  0072  1908               	btfsc	8,2	;volatile
  1679  0073  2875               	goto	u195_21
  1680  0074  2876               	goto	u195_20
  1681  0075                     u195_21:
  1682  0075  287A               	goto	i1l182
  1683  0076                     u195_20:
  1684  0076                     i1l2274:
  1685                           
  1686                           ;pro2.c: 116:             {;pro2.c: 117:                servo2_2();
  1687  0076  01A3               	clrf	_sentido
  1688                           
  1689                           ;pro2.c: 118:             }
  1690  0077  0195               	clrf	21	;volatile
  1691                           
  1692                           ;pro2.c: 119:             if((M1<=152)&&(M1>=102))
  1693  0078  019B               	clrf	27	;volatile
  1694  0079  29E4               	goto	i1l2404
  1695  007A                     i1l182:
  1696                           
  1697                           ;pro2.c: 121:                servo2_3();
  1698  007A  29E4               	goto	i1l2404
  1699  007B                     i1l2276:
  1700  007B  0C1F               	rrf	31,w	;volatile
  1701  007C  00A8               	movwf	??_isr
  1702  007D  0C28               	rrf	??_isr,w
  1703  007E  390F               	andlw	15
  1704  007F  3A01               	xorlw	1
  1705  0080  1D03               	skipz
  1706  0081  2883               	goto	u196_21
  1707  0082  2884               	goto	u196_20
  1708  0083                     u196_21:
  1709  0083  28D6               	goto	i1l2308
  1710  0084                     u196_20:
  1711  0084                     i1l2278:
  1712                           
  1713                           ;pro2.c: 123:             if((M1<=203)&&(M1>=153));pro2.c: 124:             {
  1714  0084  081E               	movf	30,w	;volatile
  1715  0085  00A8               	movwf	??_isr
  1716  0086  0828               	movf	??_isr,w
  1717  0087  00FD               	movwf	_M
  1718  0088                     i1l2280:
  1719                           
  1720                           ;pro2.c: 125:                servo2_4();
  1721  0088  081F               	movf	31,w	;volatile
  1722  0089  39C3               	andlw	-61
  1723  008A  3808               	iorlw	8
  1724  008B  009F               	movwf	31	;volatile
  1725  008C                     i1l2282:
  1726                           
  1727                           ;pro2.c: 126:             }
  1728  008C  3033               	movlw	51
  1729  008D  027D               	subwf	_M,w
  1730  008E  1803               	skipnc
  1731  008F  2891               	goto	u197_21
  1732  0090  2892               	goto	u197_20
  1733  0091                     u197_21:
  1734  0091  2897               	goto	i1l2286
  1735  0092                     u197_20:
  1736  0092                     i1l2284:
  1737                           
  1738                           ;pro2.c: 127:             if(M1>=204);pro2.c: 128:             {
  1739  0092  120A  158A  24BD  120A  118A  	fcall	_servo1
  1740  0097                     i1l2286:
  1741                           
  1742                           ;pro2.c: 130:             }
  1743  0097  3066               	movlw	102
  1744  0098  027D               	subwf	_M,w
  1745  0099  1803               	skipnc
  1746  009A  289C               	goto	u198_21
  1747  009B  289D               	goto	u198_20
  1748  009C                     u198_21:
  1749  009C  28A8               	goto	i1l2292
  1750  009D                     u198_20:
  1751  009D                     i1l2288:
  1752  009D  3033               	movlw	51
  1753  009E  027D               	subwf	_M,w
  1754  009F  1C03               	skipc
  1755  00A0  28A2               	goto	u199_21
  1756  00A1  28A3               	goto	u199_20
  1757  00A2                     u199_21:
  1758  00A2  28A8               	goto	i1l2292
  1759  00A3                     u199_20:
  1760  00A3                     i1l2290:
  1761                           
  1762                           ;pro2.c: 131:         };pro2.c: 132:         else if (ADCON0bits.CHS == 3)
  1763  00A3  120A  158A  2585  120A  118A  	fcall	_servo1_2
  1764  00A8                     i1l2292:
  1765                           
  1766                           ;pro2.c: 134:             M2 = ADRESH;
  1767  00A8  3099               	movlw	153
  1768  00A9  027D               	subwf	_M,w
  1769  00AA  1803               	skipnc
  1770  00AB  28AD               	goto	u200_21
  1771  00AC  28AE               	goto	u200_20
  1772  00AD                     u200_21:
  1773  00AD  28B9               	goto	i1l2298
  1774  00AE                     u200_20:
  1775  00AE                     i1l2294:
  1776  00AE  3066               	movlw	102
  1777  00AF  027D               	subwf	_M,w
  1778  00B0  1C03               	skipc
  1779  00B1  28B3               	goto	u201_21
  1780  00B2  28B4               	goto	u201_20
  1781  00B3                     u201_21:
  1782  00B3  28B9               	goto	i1l2298
  1783  00B4                     u201_20:
  1784  00B4                     i1l2296:
  1785                           
  1786                           ;pro2.c: 135:             ADCON0bits.CHS = 4;;pro2.c: 136:             if(M2<=50)
  1787  00B4  120A  158A  259E  120A  118A  	fcall	_servo1_3
  1788  00B9                     i1l2298:
  1789                           
  1790                           ;pro2.c: 138:                servo3();
  1791  00B9  30CC               	movlw	204
  1792  00BA  027D               	subwf	_M,w
  1793  00BB  1803               	skipnc
  1794  00BC  28BE               	goto	u202_21
  1795  00BD  28BF               	goto	u202_20
  1796  00BE                     u202_21:
  1797  00BE  28CA               	goto	i1l2304
  1798  00BF                     u202_20:
  1799  00BF                     i1l2300:
  1800  00BF  3099               	movlw	153
  1801  00C0  027D               	subwf	_M,w
  1802  00C1  1C03               	skipc
  1803  00C2  28C4               	goto	u203_21
  1804  00C3  28C5               	goto	u203_20
  1805  00C4                     u203_21:
  1806  00C4  28CA               	goto	i1l2304
  1807  00C5                     u203_20:
  1808  00C5                     i1l2302:
  1809                           
  1810                           ;pro2.c: 139:             };pro2.c: 140:             if((M2<=101)&&(M2>=51))
  1811  00C5  120A  158A  25B7  120A  118A  	fcall	_servo1_4
  1812  00CA                     i1l2304:
  1813                           
  1814                           ;pro2.c: 142:                servo3_2();
  1815  00CA  30CC               	movlw	204
  1816  00CB  027D               	subwf	_M,w
  1817  00CC  1C03               	skipc
  1818  00CD  28CF               	goto	u204_21
  1819  00CE  28D0               	goto	u204_20
  1820  00CF                     u204_21:
  1821  00CF  29E4               	goto	i1l2404
  1822  00D0                     u204_20:
  1823  00D0                     i1l2306:
  1824                           
  1825                           ;pro2.c: 143:             };pro2.c: 144:             if((M2<=152)&&(M2>=102))
  1826  00D0  120A  158A  24D6  120A  118A  	fcall	_servo1_5
  1827  00D5  29E4               	goto	i1l2404
  1828  00D6                     i1l2308:
  1829  00D6  0C1F               	rrf	31,w	;volatile
  1830  00D7  00A8               	movwf	??_isr
  1831  00D8  0C28               	rrf	??_isr,w
  1832  00D9  390F               	andlw	15
  1833  00DA  3A02               	xorlw	2
  1834  00DB  1D03               	skipz
  1835  00DC  28DE               	goto	u205_21
  1836  00DD  28DF               	goto	u205_20
  1837  00DE                     u205_21:
  1838  00DE  2931               	goto	i1l2340
  1839  00DF                     u205_20:
  1840  00DF                     i1l2310:
  1841                           
  1842                           ;pro2.c: 148:             if((M2<=203)&&(M2>=153));pro2.c: 149:             {
  1843  00DF  081E               	movf	30,w	;volatile
  1844  00E0  00A8               	movwf	??_isr
  1845  00E1  0828               	movf	??_isr,w
  1846  00E2  00FC               	movwf	_M1
  1847  00E3                     i1l2312:
  1848                           
  1849                           ;pro2.c: 150:                servo3_4();
  1850  00E3  081F               	movf	31,w	;volatile
  1851  00E4  39C3               	andlw	-61
  1852  00E5  380C               	iorlw	12
  1853  00E6  009F               	movwf	31	;volatile
  1854  00E7                     i1l2314:
  1855                           
  1856                           ;pro2.c: 151:             }
  1857  00E7  3033               	movlw	51
  1858  00E8  027C               	subwf	_M1,w
  1859  00E9  1803               	skipnc
  1860  00EA  28EC               	goto	u206_21
  1861  00EB  28ED               	goto	u206_20
  1862  00EC                     u206_21:
  1863  00EC  28F2               	goto	i1l2318
  1864  00ED                     u206_20:
  1865  00ED                     i1l2316:
  1866                           
  1867                           ;pro2.c: 152:             if(M2>=204);pro2.c: 153:             {
  1868  00ED  120A  158A  24EF  120A  118A  	fcall	_servo2
  1869  00F2                     i1l2318:
  1870                           
  1871                           ;pro2.c: 155:             }
  1872  00F2  3066               	movlw	102
  1873  00F3  027C               	subwf	_M1,w
  1874  00F4  1803               	skipnc
  1875  00F5  28F7               	goto	u207_21
  1876  00F6  28F8               	goto	u207_20
  1877  00F7                     u207_21:
  1878  00F7  2903               	goto	i1l2324
  1879  00F8                     u207_20:
  1880  00F8                     i1l2320:
  1881  00F8  3033               	movlw	51
  1882  00F9  027C               	subwf	_M1,w
  1883  00FA  1C03               	skipc
  1884  00FB  28FD               	goto	u208_21
  1885  00FC  28FE               	goto	u208_20
  1886  00FD                     u208_21:
  1887  00FD  2903               	goto	i1l2324
  1888  00FE                     u208_20:
  1889  00FE                     i1l2322:
  1890                           
  1891                           ;pro2.c: 156:         };pro2.c: 157:         else if (ADCON0bits.CHS == 4)
  1892  00FE  120A  158A  25D0  120A  118A  	fcall	_servo2_2
  1893  0103                     i1l2324:
  1894                           
  1895                           ;pro2.c: 159:             M3 = ADRESH;
  1896  0103  3099               	movlw	153
  1897  0104  027C               	subwf	_M1,w
  1898  0105  1803               	skipnc
  1899  0106  2908               	goto	u209_21
  1900  0107  2909               	goto	u209_20
  1901  0108                     u209_21:
  1902  0108  2914               	goto	i1l2330
  1903  0109                     u209_20:
  1904  0109                     i1l2326:
  1905  0109  3066               	movlw	102
  1906  010A  027C               	subwf	_M1,w
  1907  010B  1C03               	skipc
  1908  010C  290E               	goto	u210_21
  1909  010D  290F               	goto	u210_20
  1910  010E                     u210_21:
  1911  010E  2914               	goto	i1l2330
  1912  010F                     u210_20:
  1913  010F                     i1l2328:
  1914                           
  1915                           ;pro2.c: 160:             ADCON0bits.CHS = 0;;pro2.c: 161:             if(M3<=50)
  1916  010F  120A  158A  25E9  120A  118A  	fcall	_servo2_3
  1917  0114                     i1l2330:
  1918                           
  1919                           ;pro2.c: 163:                servo4();
  1920  0114  30CC               	movlw	204
  1921  0115  027C               	subwf	_M1,w
  1922  0116  1803               	skipnc
  1923  0117  2919               	goto	u211_21
  1924  0118  291A               	goto	u211_20
  1925  0119                     u211_21:
  1926  0119  2925               	goto	i1l2336
  1927  011A                     u211_20:
  1928  011A                     i1l2332:
  1929  011A  3099               	movlw	153
  1930  011B  027C               	subwf	_M1,w
  1931  011C  1C03               	skipc
  1932  011D  291F               	goto	u212_21
  1933  011E  2920               	goto	u212_20
  1934  011F                     u212_21:
  1935  011F  2925               	goto	i1l2336
  1936  0120                     u212_20:
  1937  0120                     i1l2334:
  1938                           
  1939                           ;pro2.c: 164:             };pro2.c: 165:             if((M3<=101)&&(M3>=51))
  1940  0120  120A  158A  2602  120A  118A  	fcall	_servo2_4
  1941  0125                     i1l2336:
  1942                           
  1943                           ;pro2.c: 167:                servo4_2();
  1944  0125  30CC               	movlw	204
  1945  0126  027C               	subwf	_M1,w
  1946  0127  1C03               	skipc
  1947  0128  292A               	goto	u213_21
  1948  0129  292B               	goto	u213_20
  1949  012A                     u213_21:
  1950  012A  29E4               	goto	i1l2404
  1951  012B                     u213_20:
  1952  012B                     i1l2338:
  1953                           
  1954                           ;pro2.c: 168:             };pro2.c: 169:             if((M3<=152)&&(M3>=102))
  1955  012B  120A  158A  2508  120A  118A  	fcall	_servo2_5
  1956  0130  29E4               	goto	i1l2404
  1957  0131                     i1l2340:
  1958  0131  0C1F               	rrf	31,w	;volatile
  1959  0132  00A8               	movwf	??_isr
  1960  0133  0C28               	rrf	??_isr,w
  1961  0134  390F               	andlw	15
  1962  0135  3A03               	xorlw	3
  1963  0136  1D03               	skipz
  1964  0137  2939               	goto	u214_21
  1965  0138  293A               	goto	u214_20
  1966  0139                     u214_21:
  1967  0139  298C               	goto	i1l2372
  1968  013A                     u214_20:
  1969  013A                     i1l2342:
  1970                           
  1971                           ;pro2.c: 173:             if((M3<=203)&&(M3>=153));pro2.c: 174:             {
  1972  013A  081E               	movf	30,w	;volatile
  1973  013B  00A8               	movwf	??_isr
  1974  013C  0828               	movf	??_isr,w
  1975  013D  00FB               	movwf	_M2
  1976  013E                     i1l2344:
  1977                           
  1978                           ;pro2.c: 175:                servo4_4();
  1979  013E  081F               	movf	31,w	;volatile
  1980  013F  39C3               	andlw	-61
  1981  0140  3810               	iorlw	16
  1982  0141  009F               	movwf	31	;volatile
  1983  0142                     i1l2346:
  1984                           
  1985                           ;pro2.c: 176:             }
  1986  0142  3033               	movlw	51
  1987  0143  027B               	subwf	_M2,w
  1988  0144  1803               	skipnc
  1989  0145  2947               	goto	u215_21
  1990  0146  2948               	goto	u215_20
  1991  0147                     u215_21:
  1992  0147  294D               	goto	i1l2350
  1993  0148                     u215_20:
  1994  0148                     i1l2348:
  1995                           
  1996                           ;pro2.c: 177:             if(M3>=204);pro2.c: 178:             {
  1997  0148  120A  158A  2521  120A  118A  	fcall	_servo3
  1998  014D                     i1l2350:
  1999                           
  2000                           ;pro2.c: 180:             }
  2001  014D  3066               	movlw	102
  2002  014E  027B               	subwf	_M2,w
  2003  014F  1803               	skipnc
  2004  0150  2952               	goto	u216_21
  2005  0151  2953               	goto	u216_20
  2006  0152                     u216_21:
  2007  0152  295E               	goto	i1l2356
  2008  0153                     u216_20:
  2009  0153                     i1l2352:
  2010  0153  3033               	movlw	51
  2011  0154  027B               	subwf	_M2,w
  2012  0155  1C03               	skipc
  2013  0156  2958               	goto	u217_21
  2014  0157  2959               	goto	u217_20
  2015  0158                     u217_21:
  2016  0158  295E               	goto	i1l2356
  2017  0159                     u217_20:
  2018  0159                     i1l2354:
  2019                           
  2020                           ;pro2.c: 181:         };pro2.c: 182:         _delay((unsigned long)((50)*(8000000/400000
      +                          0.0)));
  2021  0159  120A  158A  261B  120A  118A  	fcall	_servo3_2
  2022  015E                     i1l2356:
  2023                           
  2024                           ;pro2.c: 184:     }
  2025  015E  3099               	movlw	153
  2026  015F  027B               	subwf	_M2,w
  2027  0160  1803               	skipnc
  2028  0161  2963               	goto	u218_21
  2029  0162  2964               	goto	u218_20
  2030  0163                     u218_21:
  2031  0163  296F               	goto	i1l2362
  2032  0164                     u218_20:
  2033  0164                     i1l2358:
  2034  0164  3066               	movlw	102
  2035  0165  027B               	subwf	_M2,w
  2036  0166  1C03               	skipc
  2037  0167  2969               	goto	u219_21
  2038  0168  296A               	goto	u219_20
  2039  0169                     u219_21:
  2040  0169  296F               	goto	i1l2362
  2041  016A                     u219_20:
  2042  016A                     i1l2360:
  2043                           
  2044                           ;pro2.c: 185:     if (RBIF == 1);pro2.c: 186:     {
  2045  016A  120A  158A  2634  120A  118A  	fcall	_servo3_3
  2046  016F                     i1l2362:
  2047                           
  2048                           ;pro2.c: 188:         {
  2049  016F  30CC               	movlw	204
  2050  0170  027B               	subwf	_M2,w
  2051  0171  1803               	skipnc
  2052  0172  2974               	goto	u220_21
  2053  0173  2975               	goto	u220_20
  2054  0174                     u220_21:
  2055  0174  2980               	goto	i1l2368
  2056  0175                     u220_20:
  2057  0175                     i1l2364:
  2058  0175  3099               	movlw	153
  2059  0176  027B               	subwf	_M2,w
  2060  0177  1C03               	skipc
  2061  0178  297A               	goto	u221_21
  2062  0179  297B               	goto	u221_20
  2063  017A                     u221_21:
  2064  017A  2980               	goto	i1l2368
  2065  017B                     u221_20:
  2066  017B                     i1l2366:
  2067                           
  2068                           ;pro2.c: 189:             RE0 = 1;;pro2.c: 190:             escribir_eeprom(M, 0x14);
  2069  017B  120A  158A  264D  120A  118A  	fcall	_servo3_4
  2070  0180                     i1l2368:
  2071                           
  2072                           ;pro2.c: 192:             escribir_eeprom(M2, 0x16);
  2073  0180  30CC               	movlw	204
  2074  0181  027B               	subwf	_M2,w
  2075  0182  1C03               	skipc
  2076  0183  2985               	goto	u222_21
  2077  0184  2986               	goto	u222_20
  2078  0185                     u222_21:
  2079  0185  29E4               	goto	i1l2404
  2080  0186                     u222_20:
  2081  0186                     i1l2370:
  2082                           
  2083                           ;pro2.c: 193:             escribir_eeprom(M3, 0x17);;pro2.c: 194:             escribir_e
      +                          eprom(sentido, 0x18);
  2084  0186  120A  158A  253A  120A  118A  	fcall	_servo3_5
  2085  018B  29E4               	goto	i1l2404
  2086  018C                     i1l2372:
  2087  018C  0C1F               	rrf	31,w	;volatile
  2088  018D  00A8               	movwf	??_isr
  2089  018E  0C28               	rrf	??_isr,w
  2090  018F  390F               	andlw	15
  2091  0190  3A04               	xorlw	4
  2092  0191  1D03               	skipz
  2093  0192  2994               	goto	u223_21
  2094  0193  2995               	goto	u223_20
  2095  0194                     u223_21:
  2096  0194  29E4               	goto	i1l2404
  2097  0195                     u223_20:
  2098  0195                     i1l2374:
  2099                           
  2100                           ;pro2.c: 198:         if (PORTBbits.RB5 == 0);pro2.c: 199:         {
  2101  0195  081E               	movf	30,w	;volatile
  2102  0196  00A8               	movwf	??_isr
  2103  0197  0828               	movf	??_isr,w
  2104  0198  00FA               	movwf	_M3
  2105  0199                     i1l2376:
  2106                           
  2107                           ;pro2.c: 200:             RE1 = 1;
  2108  0199  30C3               	movlw	-61
  2109  019A  059F               	andwf	31,f	;volatile
  2110  019B                     i1l2378:
  2111                           
  2112                           ;pro2.c: 201:             M4 = leer_eeprom(0x14);
  2113  019B  3033               	movlw	51
  2114  019C  027A               	subwf	_M3,w
  2115  019D  1803               	skipnc
  2116  019E  29A0               	goto	u224_21
  2117  019F  29A1               	goto	u224_20
  2118  01A0                     u224_21:
  2119  01A0  29A6               	goto	i1l2382
  2120  01A1                     u224_20:
  2121  01A1                     i1l2380:
  2122                           
  2123                           ;pro2.c: 202:             M5 = leer_eeprom(0x15);;pro2.c: 203:             M6 = leer_eep
      +                          rom(0x16);
  2124  01A1  120A  158A  2553  120A  118A  	fcall	_servo4
  2125  01A6                     i1l2382:
  2126                           
  2127                           ;pro2.c: 205:             sentido2 = leer_eeprom(0x18);
  2128  01A6  3066               	movlw	102
  2129  01A7  027A               	subwf	_M3,w
  2130  01A8  1803               	skipnc
  2131  01A9  29AB               	goto	u225_21
  2132  01AA  29AC               	goto	u225_20
  2133  01AB                     u225_21:
  2134  01AB  29B7               	goto	i1l2388
  2135  01AC                     u225_20:
  2136  01AC                     i1l2384:
  2137  01AC  3033               	movlw	51
  2138  01AD  027A               	subwf	_M3,w
  2139  01AE  1C03               	skipc
  2140  01AF  29B1               	goto	u226_21
  2141  01B0  29B2               	goto	u226_20
  2142  01B1                     u226_21:
  2143  01B1  29B7               	goto	i1l2388
  2144  01B2                     u226_20:
  2145  01B2                     i1l2386:
  2146                           
  2147                           ;pro2.c: 206:             nuevo_bit_banging();;pro2.c: 207:             _delay((unsigned
      +                           long)((1000)*(8000000/4000.0)));
  2148  01B2  120A  158A  2666  120A  118A  	fcall	_servo4_2
  2149  01B7                     i1l2388:
  2150                           
  2151                           ;pro2.c: 209:         }
  2152  01B7  3099               	movlw	153
  2153  01B8  027A               	subwf	_M3,w
  2154  01B9  1803               	skipnc
  2155  01BA  29BC               	goto	u227_21
  2156  01BB  29BD               	goto	u227_20
  2157  01BC                     u227_21:
  2158  01BC  29C8               	goto	i1l2394
  2159  01BD                     u227_20:
  2160  01BD                     i1l2390:
  2161  01BD  3066               	movlw	102
  2162  01BE  027A               	subwf	_M3,w
  2163  01BF  1C03               	skipc
  2164  01C0  29C2               	goto	u228_21
  2165  01C1  29C3               	goto	u228_20
  2166  01C2                     u228_21:
  2167  01C2  29C8               	goto	i1l2394
  2168  01C3                     u228_20:
  2169  01C3                     i1l2392:
  2170                           
  2171                           ;pro2.c: 210:         if (PORTBbits.RB6 == 0);pro2.c: 211:         {
  2172  01C3  120A  158A  267F  120A  118A  	fcall	_servo4_3
  2173  01C8                     i1l2394:
  2174                           
  2175                           ;pro2.c: 213:             uart = 1;
  2176  01C8  30CC               	movlw	204
  2177  01C9  027A               	subwf	_M3,w
  2178  01CA  1803               	skipnc
  2179  01CB  29CD               	goto	u229_21
  2180  01CC  29CE               	goto	u229_20
  2181  01CD                     u229_21:
  2182  01CD  29D9               	goto	i1l2400
  2183  01CE                     u229_20:
  2184  01CE                     i1l2396:
  2185  01CE  3099               	movlw	153
  2186  01CF  027A               	subwf	_M3,w
  2187  01D0  1C03               	skipc
  2188  01D1  29D3               	goto	u230_21
  2189  01D2  29D4               	goto	u230_20
  2190  01D3                     u230_21:
  2191  01D3  29D9               	goto	i1l2400
  2192  01D4                     u230_20:
  2193  01D4                     i1l2398:
  2194                           
  2195                           ;pro2.c: 214:             while (uart == 1);pro2.c: 215:             {
  2196  01D4  120A  118A  24DC  120A  118A  	fcall	_servo4_4
  2197  01D9                     i1l2400:
  2198                           
  2199                           ;pro2.c: 217:             }
  2200  01D9  30CC               	movlw	204
  2201  01DA  027A               	subwf	_M3,w
  2202  01DB  1C03               	skipc
  2203  01DC  29DE               	goto	u231_21
  2204  01DD  29DF               	goto	u231_20
  2205  01DE                     u231_21:
  2206  01DE  29E4               	goto	i1l2404
  2207  01DF                     u231_20:
  2208  01DF                     i1l2402:
  2209                           
  2210                           ;pro2.c: 218:             RE2 = 0;;pro2.c: 219:         }
  2211  01DF  120A  158A  256C  120A  118A  	fcall	_servo4_5
  2212  01E4                     i1l2404:
  2213                           
  2214                           ;pro2.c: 222: }
  2215  01E4  3020               	movlw	32
  2216  01E5  1283               	bcf	3,5	;RP0=0, select bank0
  2217  01E6  1303               	bcf	3,6	;RP1=0, select bank0
  2218  01E7  00A8               	movwf	??_isr
  2219  01E8                     u237_27:
  2220  01E8  0BA8               	decfsz	??_isr,f
  2221  01E9  29E8               	goto	u237_27
  2222  01EA  0000               	nop
  2223  01EB                     i1l2406:
  2224                           
  2225                           ;pro2.c: 223: 
  2226  01EB  1283               	bcf	3,5	;RP0=0, select bank0
  2227  01EC  1303               	bcf	3,6	;RP1=0, select bank0
  2228  01ED  130C               	bcf	12,6	;volatile
  2229  01EE                     i1l2408:
  2230                           
  2231                           ;pro2.c: 225: 
  2232  01EE  1C0B               	btfss	11,0	;volatile
  2233  01EF  29F1               	goto	u232_21
  2234  01F0  29F2               	goto	u232_20
  2235  01F1                     u232_21:
  2236  01F1  2AAD               	goto	i1l221
  2237  01F2                     u232_20:
  2238  01F2                     i1l2410:
  2239                           
  2240                           ;pro2.c: 226: ;pro2.c: 227: void main(void) {
  2241  01F2  1A06               	btfsc	6,4	;volatile
  2242  01F3  29F5               	goto	u233_21
  2243  01F4  29F6               	goto	u233_20
  2244  01F5                     u233_21:
  2245  01F5  2A42               	goto	i1l2420
  2246  01F6                     u233_20:
  2247  01F6                     i1l2412:
  2248                           
  2249                           ;pro2.c: 228: ;pro2.c: 229:     setup();
  2250  01F6  1409               	bsf	9,0	;volatile
  2251  01F7                     i1l2414:
  2252                           
  2253                           ;pro2.c: 230: 
  2254  01F7  3014               	movlw	20
  2255  01F8  00A8               	movwf	??_isr
  2256  01F9  0828               	movf	??_isr,w
  2257  01FA  00F0               	movwf	escribir_eeprom@direccion
  2258  01FB  087D               	movf	_M,w
  2259  01FC  120A  118A  27D5  120A  118A  	fcall	_escribir_eeprom
  2260                           
  2261                           ;pro2.c: 231:     while (1)
  2262  0201  3015               	movlw	21
  2263  0202  1283               	bcf	3,5	;RP0=0, select bank0
  2264  0203  1303               	bcf	3,6	;RP1=0, select bank0
  2265  0204  00A8               	movwf	??_isr
  2266  0205  0828               	movf	??_isr,w
  2267  0206  00F0               	movwf	escribir_eeprom@direccion
  2268  0207  087C               	movf	_M1,w
  2269  0208  120A  118A  27D5  120A  118A  	fcall	_escribir_eeprom
  2270                           
  2271                           ;pro2.c: 232:     {
  2272  020D  3016               	movlw	22
  2273  020E  1283               	bcf	3,5	;RP0=0, select bank0
  2274  020F  1303               	bcf	3,6	;RP1=0, select bank0
  2275  0210  00A8               	movwf	??_isr
  2276  0211  0828               	movf	??_isr,w
  2277  0212  00F0               	movwf	escribir_eeprom@direccion
  2278  0213  087B               	movf	_M2,w
  2279  0214  120A  118A  27D5  120A  118A  	fcall	_escribir_eeprom
  2280                           
  2281                           ;pro2.c: 233:         ADCON0bits.GO = 1;
  2282  0219  3017               	movlw	23
  2283  021A  1283               	bcf	3,5	;RP0=0, select bank0
  2284  021B  1303               	bcf	3,6	;RP1=0, select bank0
  2285  021C  00A8               	movwf	??_isr
  2286  021D  0828               	movf	??_isr,w
  2287  021E  00F0               	movwf	escribir_eeprom@direccion
  2288  021F  087A               	movf	_M3,w
  2289  0220  120A  118A  27D5  120A  118A  	fcall	_escribir_eeprom
  2290                           
  2291                           ;pro2.c: 234: }
  2292  0225  3018               	movlw	24
  2293  0226  1283               	bcf	3,5	;RP0=0, select bank0
  2294  0227  1303               	bcf	3,6	;RP1=0, select bank0
  2295  0228  00A8               	movwf	??_isr
  2296  0229  0828               	movf	??_isr,w
  2297  022A  00F0               	movwf	escribir_eeprom@direccion
  2298  022B  0823               	movf	_sentido,w
  2299  022C  120A  118A  27D5  120A  118A  	fcall	_escribir_eeprom
  2300  0231                     i1l2416:
  2301                           
  2302                           ;pro2.c: 235: }
  2303  0231  300B               	movlw	11
  2304  0232  1283               	bcf	3,5	;RP0=0, select bank0
  2305  0233  1303               	bcf	3,6	;RP1=0, select bank0
  2306  0234  00AA               	movwf	??_isr+2
  2307  0235  3026               	movlw	38
  2308  0236  00A9               	movwf	??_isr+1
  2309  0237  305D               	movlw	93
  2310  0238  00A8               	movwf	??_isr
  2311  0239                     u238_27:
  2312  0239  0BA8               	decfsz	??_isr,f
  2313  023A  2A39               	goto	u238_27
  2314  023B  0BA9               	decfsz	??_isr+1,f
  2315  023C  2A39               	goto	u238_27
  2316  023D  0BAA               	decfsz	??_isr+2,f
  2317  023E  2A39               	goto	u238_27
  2318  023F                     i1l2418:
  2319                           
  2320                           ;pro2.c: 236: 
  2321  023F  1283               	bcf	3,5	;RP0=0, select bank0
  2322  0240  1303               	bcf	3,6	;RP1=0, select bank0
  2323  0241  1009               	bcf	9,0	;volatile
  2324  0242                     i1l2420:
  2325                           
  2326                           ;pro2.c: 238: 
  2327  0242  1A86               	btfsc	6,5	;volatile
  2328  0243  2A45               	goto	u234_21
  2329  0244  2A46               	goto	u234_20
  2330  0245                     u234_21:
  2331  0245  2A94               	goto	i1l2432
  2332  0246                     u234_20:
  2333  0246                     i1l2422:
  2334                           
  2335                           ;pro2.c: 239: void setup(void){;pro2.c: 240: 
  2336  0246  1489               	bsf	9,1	;volatile
  2337  0247                     i1l2424:
  2338                           
  2339                           ;pro2.c: 241:     ANSEL = 0b00011111;
  2340  0247  3014               	movlw	20
  2341  0248  120A  158A  24AC  120A  118A  	fcall	_leer_eeprom
  2342  024D  1283               	bcf	3,5	;RP0=0, select bank0
  2343  024E  1303               	bcf	3,6	;RP1=0, select bank0
  2344  024F  00A8               	movwf	??_isr
  2345  0250  0828               	movf	??_isr,w
  2346  0251  00A7               	movwf	_M4
  2347                           
  2348                           ;pro2.c: 242:     ANSELH = 0X00;
  2349  0252  3015               	movlw	21
  2350  0253  120A  158A  24AC  120A  118A  	fcall	_leer_eeprom
  2351  0258  1283               	bcf	3,5	;RP0=0, select bank0
  2352  0259  1303               	bcf	3,6	;RP1=0, select bank0
  2353  025A  00A8               	movwf	??_isr
  2354  025B  0828               	movf	??_isr,w
  2355  025C  00A6               	movwf	_M5
  2356                           
  2357                           ;pro2.c: 243: 
  2358  025D  3016               	movlw	22
  2359  025E  120A  158A  24AC  120A  118A  	fcall	_leer_eeprom
  2360  0263  1283               	bcf	3,5	;RP0=0, select bank0
  2361  0264  1303               	bcf	3,6	;RP1=0, select bank0
  2362  0265  00A8               	movwf	??_isr
  2363  0266  0828               	movf	??_isr,w
  2364  0267  00A5               	movwf	_M6
  2365                           
  2366                           ;pro2.c: 244:     TRISA = 0xff;
  2367  0268  3017               	movlw	23
  2368  0269  120A  158A  24AC  120A  118A  	fcall	_leer_eeprom
  2369  026E  1283               	bcf	3,5	;RP0=0, select bank0
  2370  026F  1303               	bcf	3,6	;RP1=0, select bank0
  2371  0270  00A8               	movwf	??_isr
  2372  0271  0828               	movf	??_isr,w
  2373  0272  00A4               	movwf	_M7
  2374                           
  2375                           ;pro2.c: 245:     TRISBbits.TRISB0 = 0;
  2376  0273  3018               	movlw	24
  2377  0274  120A  158A  24AC  120A  118A  	fcall	_leer_eeprom
  2378  0279  1283               	bcf	3,5	;RP0=0, select bank0
  2379  027A  1303               	bcf	3,6	;RP1=0, select bank0
  2380  027B  00A8               	movwf	??_isr
  2381  027C  0828               	movf	??_isr,w
  2382  027D  00A2               	movwf	_sentido2
  2383  027E                     i1l2426:
  2384                           
  2385                           ;pro2.c: 246:     TRISBbits.TRISB1 = 0;
  2386  027E  120A  158A  2698  120A  118A  	fcall	_nuevo_bit_banging
  2387  0283                     i1l2428:
  2388                           
  2389                           ;pro2.c: 247:     TRISBbits.TRISB2 = 0;
  2390  0283  300B               	movlw	11
  2391  0284  1283               	bcf	3,5	;RP0=0, select bank0
  2392  0285  1303               	bcf	3,6	;RP1=0, select bank0
  2393  0286  00AA               	movwf	??_isr+2
  2394  0287  3026               	movlw	38
  2395  0288  00A9               	movwf	??_isr+1
  2396  0289  305D               	movlw	93
  2397  028A  00A8               	movwf	??_isr
  2398  028B                     u239_27:
  2399  028B  0BA8               	decfsz	??_isr,f
  2400  028C  2A8B               	goto	u239_27
  2401  028D  0BA9               	decfsz	??_isr+1,f
  2402  028E  2A8B               	goto	u239_27
  2403  028F  0BAA               	decfsz	??_isr+2,f
  2404  0290  2A8B               	goto	u239_27
  2405  0291                     i1l2430:
  2406                           
  2407                           ;pro2.c: 248:     TRISBbits.TRISB3 = 0;
  2408  0291  1283               	bcf	3,5	;RP0=0, select bank0
  2409  0292  1303               	bcf	3,6	;RP1=0, select bank0
  2410  0293  1089               	bcf	9,1	;volatile
  2411  0294                     i1l2432:
  2412                           
  2413                           ;pro2.c: 250:     TRISBbits.TRISB5 = 1;
  2414  0294  1B06               	btfsc	6,6	;volatile
  2415  0295  2A97               	goto	u235_21
  2416  0296  2A98               	goto	u235_20
  2417  0297                     u235_21:
  2418  0297  2AAC               	goto	i1l217
  2419  0298                     u235_20:
  2420  0298                     i1l2434:
  2421                           
  2422                           ;pro2.c: 251:     TRISBbits.TRISB6 = 1;;pro2.c: 252:     TRISDbits.TRISD0 = 1;
  2423  0298  1509               	bsf	9,2	;volatile
  2424  0299                     i1l2436:
  2425                           
  2426                           ;pro2.c: 253:     TRISDbits.TRISD1 = 1;
  2427  0299  3001               	movlw	1
  2428  029A  00A0               	movwf	_uart
  2429  029B  3000               	movlw	0
  2430  029C  00A1               	movwf	_uart+1
  2431                           
  2432                           ;pro2.c: 254:     TRISDbits.TRISD2 = 1;
  2433  029D  2AA3               	goto	i1l2440
  2434  029E                     i1l2438:
  2435                           
  2436                           ;pro2.c: 255:     TRISEbits.TRISE0 = 0;;pro2.c: 256:     TRISEbits.TRISE1 = 0;
  2437  029E  120A  118A  22B8  120A  118A  	fcall	_menu
  2438  02A3                     i1l2440:
  2439                           
  2440                           ;pro2.c: 254:     TRISDbits.TRISD2 = 1;
  2441  02A3  1283               	bcf	3,5	;RP0=0, select bank0
  2442  02A4  1303               	bcf	3,6	;RP1=0, select bank0
  2443  02A5  0320               	decf	_uart,w
  2444  02A6  0421               	iorwf	_uart+1,w
  2445  02A7  1903               	btfsc	3,2
  2446  02A8  2AAA               	goto	u236_21
  2447  02A9  2AAB               	goto	u236_20
  2448  02AA                     u236_21:
  2449  02AA  2A9E               	goto	i1l2438
  2450  02AB                     u236_20:
  2451  02AB                     i1l220:
  2452                           
  2453                           ;pro2.c: 258: 
  2454  02AB  1109               	bcf	9,2	;volatile
  2455  02AC                     i1l217:	
  2456                           ;pro2.c: 259:     PORTA = 0X00;
  2457                           
  2458                           
  2459                           ;pro2.c: 260:     PORTD = 0X00;
  2460  02AC  100B               	bcf	11,0	;volatile
  2461  02AD                     i1l221:
  2462  02AD  082E               	movf	??_isr+6,w
  2463  02AE  00FF               	movwf	btemp+1
  2464  02AF  082D               	movf	??_isr+5,w
  2465  02B0  008A               	movwf	10
  2466  02B1  082C               	movf	??_isr+4,w
  2467  02B2  0084               	movwf	4
  2468  02B3  0E2B               	swapf	??_isr+3,w
  2469  02B4  0083               	movwf	3
  2470  02B5  0EFE               	swapf	btemp,f
  2471  02B6  0E7E               	swapf	btemp,w
  2472  02B7  0009               	retfie
  2473  02B8                     __end_of_isr:
  2474                           
  2475                           	psect	intentry
  2476  0004                     __pintentry:	
  2477                           ;incstack = 0
  2478                           ; Regs used in _isr: [wreg-fsr0h+status,2+status,0+btemp+1+pclath+cstack]
  2479                           
  2480  0004                     interrupt_function:
  2481  007E                     saved_w	set	btemp
  2482  0004  00FE               	movwf	btemp
  2483  0005  0E03               	swapf	3,w
  2484  0006  1283               	bcf	3,5	;RP0=0, select bank0
  2485  0007  1303               	bcf	3,6	;RP1=0, select bank0
  2486  0008  00AB               	movwf	??_isr+3
  2487  0009  0804               	movf	4,w
  2488  000A  00AC               	movwf	??_isr+4
  2489  000B  080A               	movf	10,w
  2490  000C  00AD               	movwf	??_isr+5
  2491  000D  087F               	movf	btemp+1,w
  2492  000E  00AE               	movwf	??_isr+6
  2493  000F  120A  118A  2827   	ljmp	_isr
  2494                           
  2495                           	psect	text3
  2496  0E98                     __ptext3:	
  2497 ;; *************** function _nuevo_bit_banging *****************
  2498 ;; Defined at:
  2499 ;;		line 551 in file "pro2.c"
  2500 ;; Parameters:    Size  Location     Type
  2501 ;;		None
  2502 ;; Auto vars:     Size  Location     Type
  2503 ;;		None
  2504 ;; Return value:  Size  Location     Type
  2505 ;;                  1    wreg      void 
  2506 ;; Registers used:
  2507 ;;		wreg, status,2, status,0, pclath, cstack
  2508 ;; Tracked objects:
  2509 ;;		On entry : 0/0
  2510 ;;		On exit  : 0/0
  2511 ;;		Unchanged: 0/0
  2512 ;; Data sizes:     COMMON   BANK0   BANK1   BANK3   BANK2
  2513 ;;      Params:         0       0       0       0       0
  2514 ;;      Locals:         0       0       0       0       0
  2515 ;;      Temps:          0       0       0       0       0
  2516 ;;      Totals:         0       0       0       0       0
  2517 ;;Total ram usage:        0 bytes
  2518 ;; Hardware stack levels used:    1
  2519 ;; Hardware stack levels required when called:    1
  2520 ;; This function calls:
  2521 ;;		_servo1
  2522 ;;		_servo1_2
  2523 ;;		_servo1_3
  2524 ;;		_servo1_4
  2525 ;;		_servo1_5
  2526 ;;		_servo2
  2527 ;;		_servo2_2
  2528 ;;		_servo2_3
  2529 ;;		_servo2_4
  2530 ;;		_servo2_5
  2531 ;;		_servo3
  2532 ;;		_servo3_2
  2533 ;;		_servo3_3
  2534 ;;		_servo3_4
  2535 ;;		_servo3_5
  2536 ;;		_servo4
  2537 ;;		_servo4_2
  2538 ;;		_servo4_3
  2539 ;;		_servo4_4
  2540 ;;		_servo4_5
  2541 ;; This function is called by:
  2542 ;;		_isr
  2543 ;; This function uses a non-reentrant model
  2544 ;;
  2545                           
  2546                           
  2547                           ;psect for function _nuevo_bit_banging
  2548  0E98                     _nuevo_bit_banging:
  2549  0E98                     i1l1862:	
  2550                           ;incstack = 0
  2551                           ; Regs used in _nuevo_bit_banging: [wreg+status,2+status,0+pclath+cstack]
  2552                           
  2553                           
  2554                           ;pro2.c: 553:      servo2_5();
  2555  0E98  3033               	movlw	51
  2556  0E99  1283               	bcf	3,5	;RP0=0, select bank0
  2557  0E9A  1303               	bcf	3,6	;RP1=0, select bank0
  2558  0E9B  0227               	subwf	_M4,w
  2559  0E9C  1803               	skipnc
  2560  0E9D  2E9F               	goto	u122_21
  2561  0E9E  2EA0               	goto	u122_20
  2562  0E9F                     u122_21:
  2563  0E9F  2EA5               	goto	i1l1866
  2564  0EA0                     u122_20:
  2565  0EA0                     i1l1864:
  2566                           
  2567                           ;pro2.c: 554:     };pro2.c: 555: 
  2568  0EA0  120A  158A  24BD  120A  158A  	fcall	_servo1
  2569  0EA5                     i1l1866:
  2570                           
  2571                           ;pro2.c: 557:     {
  2572  0EA5  3066               	movlw	102
  2573  0EA6  1283               	bcf	3,5	;RP0=0, select bank0
  2574  0EA7  1303               	bcf	3,6	;RP1=0, select bank0
  2575  0EA8  0227               	subwf	_M4,w
  2576  0EA9  1803               	skipnc
  2577  0EAA  2EAC               	goto	u123_21
  2578  0EAB  2EAD               	goto	u123_20
  2579  0EAC                     u123_21:
  2580  0EAC  2EB8               	goto	i1l1872
  2581  0EAD                     u123_20:
  2582  0EAD                     i1l1868:
  2583  0EAD  3033               	movlw	51
  2584  0EAE  0227               	subwf	_M4,w
  2585  0EAF  1C03               	skipc
  2586  0EB0  2EB2               	goto	u124_21
  2587  0EB1  2EB3               	goto	u124_20
  2588  0EB2                     u124_21:
  2589  0EB2  2EB8               	goto	i1l1872
  2590  0EB3                     u124_20:
  2591  0EB3                     i1l1870:
  2592                           
  2593                           ;pro2.c: 558:      servo3();;pro2.c: 559:     }
  2594  0EB3  120A  158A  2585  120A  158A  	fcall	_servo1_2
  2595  0EB8                     i1l1872:
  2596                           
  2597                           ;pro2.c: 561:     {
  2598  0EB8  3099               	movlw	153
  2599  0EB9  1283               	bcf	3,5	;RP0=0, select bank0
  2600  0EBA  1303               	bcf	3,6	;RP1=0, select bank0
  2601  0EBB  0227               	subwf	_M4,w
  2602  0EBC  1803               	skipnc
  2603  0EBD  2EBF               	goto	u125_21
  2604  0EBE  2EC0               	goto	u125_20
  2605  0EBF                     u125_21:
  2606  0EBF  2ECB               	goto	i1l1878
  2607  0EC0                     u125_20:
  2608  0EC0                     i1l1874:
  2609  0EC0  3066               	movlw	102
  2610  0EC1  0227               	subwf	_M4,w
  2611  0EC2  1C03               	skipc
  2612  0EC3  2EC5               	goto	u126_21
  2613  0EC4  2EC6               	goto	u126_20
  2614  0EC5                     u126_21:
  2615  0EC5  2ECB               	goto	i1l1878
  2616  0EC6                     u126_20:
  2617  0EC6                     i1l1876:
  2618                           
  2619                           ;pro2.c: 562:      servo3_2();;pro2.c: 563:     }
  2620  0EC6  120A  158A  259E  120A  158A  	fcall	_servo1_3
  2621  0ECB                     i1l1878:
  2622                           
  2623                           ;pro2.c: 565:     {
  2624  0ECB  30CC               	movlw	204
  2625  0ECC  1283               	bcf	3,5	;RP0=0, select bank0
  2626  0ECD  1303               	bcf	3,6	;RP1=0, select bank0
  2627  0ECE  0227               	subwf	_M4,w
  2628  0ECF  1803               	skipnc
  2629  0ED0  2ED2               	goto	u127_21
  2630  0ED1  2ED3               	goto	u127_20
  2631  0ED2                     u127_21:
  2632  0ED2  2EDE               	goto	i1l1884
  2633  0ED3                     u127_20:
  2634  0ED3                     i1l1880:
  2635  0ED3  3099               	movlw	153
  2636  0ED4  0227               	subwf	_M4,w
  2637  0ED5  1C03               	skipc
  2638  0ED6  2ED8               	goto	u128_21
  2639  0ED7  2ED9               	goto	u128_20
  2640  0ED8                     u128_21:
  2641  0ED8  2EDE               	goto	i1l1884
  2642  0ED9                     u128_20:
  2643  0ED9                     i1l1882:
  2644                           
  2645                           ;pro2.c: 566:      servo3_3();;pro2.c: 567:     }
  2646  0ED9  120A  158A  25B7  120A  158A  	fcall	_servo1_4
  2647  0EDE                     i1l1884:
  2648                           
  2649                           ;pro2.c: 569:     {
  2650  0EDE  30CC               	movlw	204
  2651  0EDF  1283               	bcf	3,5	;RP0=0, select bank0
  2652  0EE0  1303               	bcf	3,6	;RP1=0, select bank0
  2653  0EE1  0227               	subwf	_M4,w
  2654  0EE2  1C03               	skipc
  2655  0EE3  2EE5               	goto	u129_21
  2656  0EE4  2EE6               	goto	u129_20
  2657  0EE5                     u129_21:
  2658  0EE5  2EEB               	goto	i1l1888
  2659  0EE6                     u129_20:
  2660  0EE6                     i1l1886:
  2661                           
  2662                           ;pro2.c: 570:      servo3_4();;pro2.c: 571:     }
  2663  0EE6  120A  158A  24D6  120A  158A  	fcall	_servo1_5
  2664  0EEB                     i1l1888:
  2665                           
  2666                           ;pro2.c: 575:     }
  2667  0EEB  3033               	movlw	51
  2668  0EEC  1283               	bcf	3,5	;RP0=0, select bank0
  2669  0EED  1303               	bcf	3,6	;RP1=0, select bank0
  2670  0EEE  0226               	subwf	_M5,w
  2671  0EEF  1803               	skipnc
  2672  0EF0  2EF2               	goto	u130_21
  2673  0EF1  2EF3               	goto	u130_20
  2674  0EF2                     u130_21:
  2675  0EF2  2EF8               	goto	i1l1892
  2676  0EF3                     u130_20:
  2677  0EF3                     i1l1890:
  2678                           
  2679                           ;pro2.c: 576: ;pro2.c: 577: 
  2680  0EF3  120A  158A  24EF  120A  158A  	fcall	_servo2
  2681  0EF8                     i1l1892:
  2682                           
  2683                           ;pro2.c: 579:     {
  2684  0EF8  3066               	movlw	102
  2685  0EF9  1283               	bcf	3,5	;RP0=0, select bank0
  2686  0EFA  1303               	bcf	3,6	;RP1=0, select bank0
  2687  0EFB  0226               	subwf	_M5,w
  2688  0EFC  1803               	skipnc
  2689  0EFD  2EFF               	goto	u131_21
  2690  0EFE  2F00               	goto	u131_20
  2691  0EFF                     u131_21:
  2692  0EFF  2F0B               	goto	i1l1898
  2693  0F00                     u131_20:
  2694  0F00                     i1l1894:
  2695  0F00  3033               	movlw	51
  2696  0F01  0226               	subwf	_M5,w
  2697  0F02  1C03               	skipc
  2698  0F03  2F05               	goto	u132_21
  2699  0F04  2F06               	goto	u132_20
  2700  0F05                     u132_21:
  2701  0F05  2F0B               	goto	i1l1898
  2702  0F06                     u132_20:
  2703  0F06                     i1l1896:
  2704                           
  2705                           ;pro2.c: 580:      servo4();;pro2.c: 581:     }
  2706  0F06  120A  158A  25D0  120A  158A  	fcall	_servo2_2
  2707  0F0B                     i1l1898:
  2708                           
  2709                           ;pro2.c: 583:     {
  2710  0F0B  3099               	movlw	153
  2711  0F0C  1283               	bcf	3,5	;RP0=0, select bank0
  2712  0F0D  1303               	bcf	3,6	;RP1=0, select bank0
  2713  0F0E  0226               	subwf	_M5,w
  2714  0F0F  1803               	skipnc
  2715  0F10  2F12               	goto	u133_21
  2716  0F11  2F13               	goto	u133_20
  2717  0F12                     u133_21:
  2718  0F12  2F1E               	goto	i1l1904
  2719  0F13                     u133_20:
  2720  0F13                     i1l1900:
  2721  0F13  3066               	movlw	102
  2722  0F14  0226               	subwf	_M5,w
  2723  0F15  1C03               	skipc
  2724  0F16  2F18               	goto	u134_21
  2725  0F17  2F19               	goto	u134_20
  2726  0F18                     u134_21:
  2727  0F18  2F1E               	goto	i1l1904
  2728  0F19                     u134_20:
  2729  0F19                     i1l1902:
  2730                           
  2731                           ;pro2.c: 584:      servo4_2();;pro2.c: 585:     }
  2732  0F19  120A  158A  25E9  120A  158A  	fcall	_servo2_3
  2733  0F1E                     i1l1904:
  2734                           
  2735                           ;pro2.c: 587:     {
  2736  0F1E  30CC               	movlw	204
  2737  0F1F  1283               	bcf	3,5	;RP0=0, select bank0
  2738  0F20  1303               	bcf	3,6	;RP1=0, select bank0
  2739  0F21  0226               	subwf	_M5,w
  2740  0F22  1803               	skipnc
  2741  0F23  2F25               	goto	u135_21
  2742  0F24  2F26               	goto	u135_20
  2743  0F25                     u135_21:
  2744  0F25  2F31               	goto	i1l1910
  2745  0F26                     u135_20:
  2746  0F26                     i1l1906:
  2747  0F26  3099               	movlw	153
  2748  0F27  0226               	subwf	_M5,w
  2749  0F28  1C03               	skipc
  2750  0F29  2F2B               	goto	u136_21
  2751  0F2A  2F2C               	goto	u136_20
  2752  0F2B                     u136_21:
  2753  0F2B  2F31               	goto	i1l1910
  2754  0F2C                     u136_20:
  2755  0F2C                     i1l1908:
  2756                           
  2757                           ;pro2.c: 588:      servo4_3();;pro2.c: 589:     }
  2758  0F2C  120A  158A  2602  120A  158A  	fcall	_servo2_4
  2759  0F31                     i1l1910:
  2760                           
  2761                           ;pro2.c: 591:     {
  2762  0F31  30CC               	movlw	204
  2763  0F32  1283               	bcf	3,5	;RP0=0, select bank0
  2764  0F33  1303               	bcf	3,6	;RP1=0, select bank0
  2765  0F34  0226               	subwf	_M5,w
  2766  0F35  1C03               	skipc
  2767  0F36  2F38               	goto	u137_21
  2768  0F37  2F39               	goto	u137_20
  2769  0F38                     u137_21:
  2770  0F38  2F3E               	goto	i1l1914
  2771  0F39                     u137_20:
  2772  0F39                     i1l1912:
  2773                           
  2774                           ;pro2.c: 592:      servo4_4();;pro2.c: 593:     }
  2775  0F39  120A  158A  2508  120A  158A  	fcall	_servo2_5
  2776  0F3E                     i1l1914:
  2777                           
  2778                           ;pro2.c: 596:      servo4_5();
  2779  0F3E  3033               	movlw	51
  2780  0F3F  1283               	bcf	3,5	;RP0=0, select bank0
  2781  0F40  1303               	bcf	3,6	;RP1=0, select bank0
  2782  0F41  0225               	subwf	_M6,w
  2783  0F42  1803               	skipnc
  2784  0F43  2F45               	goto	u138_21
  2785  0F44  2F46               	goto	u138_20
  2786  0F45                     u138_21:
  2787  0F45  2F4B               	goto	i1l1918
  2788  0F46                     u138_20:
  2789  0F46                     i1l1916:
  2790                           
  2791                           ;pro2.c: 597:     };pro2.c: 598: 
  2792  0F46  120A  158A  2521  120A  158A  	fcall	_servo3
  2793  0F4B                     i1l1918:
  2794                           
  2795                           ;pro2.c: 600:     if(sentido2 == 0b01)
  2796  0F4B  3066               	movlw	102
  2797  0F4C  1283               	bcf	3,5	;RP0=0, select bank0
  2798  0F4D  1303               	bcf	3,6	;RP1=0, select bank0
  2799  0F4E  0225               	subwf	_M6,w
  2800  0F4F  1803               	skipnc
  2801  0F50  2F52               	goto	u139_21
  2802  0F51  2F53               	goto	u139_20
  2803  0F52                     u139_21:
  2804  0F52  2F5E               	goto	i1l1924
  2805  0F53                     u139_20:
  2806  0F53                     i1l1920:
  2807  0F53  3033               	movlw	51
  2808  0F54  0225               	subwf	_M6,w
  2809  0F55  1C03               	skipc
  2810  0F56  2F58               	goto	u140_21
  2811  0F57  2F59               	goto	u140_20
  2812  0F58                     u140_21:
  2813  0F58  2F5E               	goto	i1l1924
  2814  0F59                     u140_20:
  2815  0F59                     i1l1922:
  2816                           
  2817                           ;pro2.c: 601:     {;pro2.c: 602:      CCPR1L = 0;
  2818  0F59  120A  158A  261B  120A  158A  	fcall	_servo3_2
  2819  0F5E                     i1l1924:
  2820                           
  2821                           ;pro2.c: 604:     }
  2822  0F5E  3099               	movlw	153
  2823  0F5F  1283               	bcf	3,5	;RP0=0, select bank0
  2824  0F60  1303               	bcf	3,6	;RP1=0, select bank0
  2825  0F61  0225               	subwf	_M6,w
  2826  0F62  1803               	skipnc
  2827  0F63  2F65               	goto	u141_21
  2828  0F64  2F66               	goto	u141_20
  2829  0F65                     u141_21:
  2830  0F65  2F71               	goto	i1l1930
  2831  0F66                     u141_20:
  2832  0F66                     i1l1926:
  2833  0F66  3066               	movlw	102
  2834  0F67  0225               	subwf	_M6,w
  2835  0F68  1C03               	skipc
  2836  0F69  2F6B               	goto	u142_21
  2837  0F6A  2F6C               	goto	u142_20
  2838  0F6B                     u142_21:
  2839  0F6B  2F71               	goto	i1l1930
  2840  0F6C                     u142_20:
  2841  0F6C                     i1l1928:
  2842                           
  2843                           ;pro2.c: 605:     if(sentido2 == 0b10);pro2.c: 606:     {
  2844  0F6C  120A  158A  2634  120A  158A  	fcall	_servo3_3
  2845  0F71                     i1l1930:
  2846                           
  2847                           ;pro2.c: 608:      CCPR2L = 0;
  2848  0F71  30CC               	movlw	204
  2849  0F72  1283               	bcf	3,5	;RP0=0, select bank0
  2850  0F73  1303               	bcf	3,6	;RP1=0, select bank0
  2851  0F74  0225               	subwf	_M6,w
  2852  0F75  1803               	skipnc
  2853  0F76  2F78               	goto	u143_21
  2854  0F77  2F79               	goto	u143_20
  2855  0F78                     u143_21:
  2856  0F78  2F84               	goto	i1l1936
  2857  0F79                     u143_20:
  2858  0F79                     i1l1932:
  2859  0F79  3099               	movlw	153
  2860  0F7A  0225               	subwf	_M6,w
  2861  0F7B  1C03               	skipc
  2862  0F7C  2F7E               	goto	u144_21
  2863  0F7D  2F7F               	goto	u144_20
  2864  0F7E                     u144_21:
  2865  0F7E  2F84               	goto	i1l1936
  2866  0F7F                     u144_20:
  2867  0F7F                     i1l1934:
  2868                           
  2869                           ;pro2.c: 609:     };pro2.c: 610:     if(sentido2 == 0b10)
  2870  0F7F  120A  158A  264D  120A  158A  	fcall	_servo3_4
  2871  0F84                     i1l1936:
  2872                           
  2873                           ;pro2.c: 612:      CCPR1L = 0;
  2874  0F84  30CC               	movlw	204
  2875  0F85  1283               	bcf	3,5	;RP0=0, select bank0
  2876  0F86  1303               	bcf	3,6	;RP1=0, select bank0
  2877  0F87  0225               	subwf	_M6,w
  2878  0F88  1C03               	skipc
  2879  0F89  2F8B               	goto	u145_21
  2880  0F8A  2F8C               	goto	u145_20
  2881  0F8B                     u145_21:
  2882  0F8B  2F91               	goto	i1l1940
  2883  0F8C                     u145_20:
  2884  0F8C                     i1l1938:
  2885                           
  2886                           ;pro2.c: 613:      CCPR2L = 0;;pro2.c: 614:     }
  2887  0F8C  120A  158A  253A  120A  158A  	fcall	_servo3_5
  2888  0F91                     i1l1940:
  2889                           
  2890                           ;pro2.c: 618:      _delay((unsigned long)((50)*(8000000/4000.0)));
  2891  0F91  3033               	movlw	51
  2892  0F92  1283               	bcf	3,5	;RP0=0, select bank0
  2893  0F93  1303               	bcf	3,6	;RP1=0, select bank0
  2894  0F94  0224               	subwf	_M7,w
  2895  0F95  1803               	skipnc
  2896  0F96  2F98               	goto	u146_21
  2897  0F97  2F99               	goto	u146_20
  2898  0F98                     u146_21:
  2899  0F98  2F9E               	goto	i1l1944
  2900  0F99                     u146_20:
  2901  0F99                     i1l1942:
  2902                           
  2903                           ;pro2.c: 619:      printf("\rQue accion desea ejecutar? \r");;pro2.c: 620:      _delay((
      +                          unsigned long)((50)*(8000000/4000.0)));
  2904  0F99  120A  158A  2553  120A  158A  	fcall	_servo4
  2905  0F9E                     i1l1944:
  2906                           
  2907                           ;pro2.c: 622:      _delay((unsigned long)((50)*(8000000/4000.0)));
  2908  0F9E  3066               	movlw	102
  2909  0F9F  1283               	bcf	3,5	;RP0=0, select bank0
  2910  0FA0  1303               	bcf	3,6	;RP1=0, select bank0
  2911  0FA1  0224               	subwf	_M7,w
  2912  0FA2  1803               	skipnc
  2913  0FA3  2FA5               	goto	u147_21
  2914  0FA4  2FA6               	goto	u147_20
  2915  0FA5                     u147_21:
  2916  0FA5  2FB1               	goto	i1l1950
  2917  0FA6                     u147_20:
  2918  0FA6                     i1l1946:
  2919  0FA6  3033               	movlw	51
  2920  0FA7  0224               	subwf	_M7,w
  2921  0FA8  1C03               	skipc
  2922  0FA9  2FAB               	goto	u148_21
  2923  0FAA  2FAC               	goto	u148_20
  2924  0FAB                     u148_21:
  2925  0FAB  2FB1               	goto	i1l1950
  2926  0FAC                     u148_20:
  2927  0FAC                     i1l1948:
  2928                           
  2929                           ;pro2.c: 623:      printf("(2) MOVER CEJAS \r");;pro2.c: 624:      _delay((unsigned long
      +                          )((50)*(8000000/4000.0)));
  2930  0FAC  120A  158A  2666  120A  158A  	fcall	_servo4_2
  2931  0FB1                     i1l1950:
  2932                           
  2933                           ;pro2.c: 626:      _delay((unsigned long)((50)*(8000000/4000.0)));
  2934  0FB1  3099               	movlw	153
  2935  0FB2  1283               	bcf	3,5	;RP0=0, select bank0
  2936  0FB3  1303               	bcf	3,6	;RP1=0, select bank0
  2937  0FB4  0224               	subwf	_M7,w
  2938  0FB5  1803               	skipnc
  2939  0FB6  2FB8               	goto	u149_21
  2940  0FB7  2FB9               	goto	u149_20
  2941  0FB8                     u149_21:
  2942  0FB8  2FC4               	goto	i1l1956
  2943  0FB9                     u149_20:
  2944  0FB9                     i1l1952:
  2945  0FB9  3066               	movlw	102
  2946  0FBA  0224               	subwf	_M7,w
  2947  0FBB  1C03               	skipc
  2948  0FBC  2FBE               	goto	u150_21
  2949  0FBD  2FBF               	goto	u150_20
  2950  0FBE                     u150_21:
  2951  0FBE  2FC4               	goto	i1l1956
  2952  0FBF                     u150_20:
  2953  0FBF                     i1l1954:
  2954                           
  2955                           ;pro2.c: 627:      printf("(4) Salir de UART \r");;pro2.c: 628:      while(RCIF == 0);
  2956  0FBF  120A  158A  267F  120A  158A  	fcall	_servo4_3
  2957  0FC4                     i1l1956:
  2958                           
  2959                           ;pro2.c: 630: 
  2960  0FC4  30CC               	movlw	204
  2961  0FC5  1283               	bcf	3,5	;RP0=0, select bank0
  2962  0FC6  1303               	bcf	3,6	;RP1=0, select bank0
  2963  0FC7  0224               	subwf	_M7,w
  2964  0FC8  1803               	skipnc
  2965  0FC9  2FCB               	goto	u151_21
  2966  0FCA  2FCC               	goto	u151_20
  2967  0FCB                     u151_21:
  2968  0FCB  2FD7               	goto	i1l1962
  2969  0FCC                     u151_20:
  2970  0FCC                     i1l1958:
  2971  0FCC  3099               	movlw	153
  2972  0FCD  0224               	subwf	_M7,w
  2973  0FCE  1C03               	skipc
  2974  0FCF  2FD1               	goto	u152_21
  2975  0FD0  2FD2               	goto	u152_20
  2976  0FD1                     u152_21:
  2977  0FD1  2FD7               	goto	i1l1962
  2978  0FD2                     u152_20:
  2979  0FD2                     i1l1960:
  2980                           
  2981                           ;pro2.c: 631:      if (RCREG == '1'){;pro2.c: 632:         _delay((unsigned long)((50)*(
      +                          8000000/4000.0)));
  2982  0FD2  120A  118A  24DC  120A  158A  	fcall	_servo4_4
  2983  0FD7                     i1l1962:
  2984                           
  2985                           ;pro2.c: 634: 
  2986  0FD7  30CC               	movlw	204
  2987  0FD8  1283               	bcf	3,5	;RP0=0, select bank0
  2988  0FD9  1303               	bcf	3,6	;RP1=0, select bank0
  2989  0FDA  0224               	subwf	_M7,w
  2990  0FDB  1C03               	skipc
  2991  0FDC  2FDE               	goto	u153_21
  2992  0FDD  2FDF               	goto	u153_20
  2993  0FDE                     u153_21:
  2994  0FDE  2FE4               	goto	i1l1966
  2995  0FDF                     u153_20:
  2996  0FDF                     i1l1964:
  2997                           
  2998                           ;pro2.c: 635:         _delay((unsigned long)((50)*(8000000/4000.0)));;pro2.c: 636:      
      +                             printf("(b) Mover ojos a la derecha. \r");
  2999  0FDF  120A  158A  256C  120A  158A  	fcall	_servo4_5
  3000  0FE4                     i1l1966:
  3001                           
  3002                           ;pro2.c: 640:         printf("(d) Mover ojos para abajo. \r");
  3003  0FE4  1283               	bcf	3,5	;RP0=0, select bank0
  3004  0FE5  1303               	bcf	3,6	;RP1=0, select bank0
  3005  0FE6  0322               	decf	_sentido2,w
  3006  0FE7  1D03               	btfss	3,2
  3007  0FE8  2FEA               	goto	u154_21
  3008  0FE9  2FEB               	goto	u154_20
  3009  0FEA                     u154_21:
  3010  0FEA  2FEE               	goto	i1l1972
  3011  0FEB                     u154_20:
  3012  0FEB                     i1l1968:
  3013                           
  3014                           ;pro2.c: 641:         while(RCIF == 0);;pro2.c: 642:         if (RCREG == 'a')
  3015  0FEB  0195               	clrf	21	;volatile
  3016  0FEC                     i1l1970:
  3017                           
  3018                           ;pro2.c: 643:         {
  3019  0FEC  081E               	movf	30,w	;volatile
  3020  0FED  009B               	movwf	27	;volatile
  3021  0FEE                     i1l1972:
  3022                           
  3023                           ;pro2.c: 645:         }
  3024  0FEE  3002               	movlw	2
  3025  0FEF  0622               	xorwf	_sentido2,w
  3026  0FF0  1D03               	btfss	3,2
  3027  0FF1  2FF3               	goto	u155_21
  3028  0FF2  2FF4               	goto	u155_20
  3029  0FF3                     u155_21:
  3030  0FF3  2FF7               	goto	i1l1978
  3031  0FF4                     u155_20:
  3032  0FF4                     i1l1974:
  3033                           
  3034                           ;pro2.c: 646:         else if (RCREG == 'b');pro2.c: 647:         {
  3035  0FF4  081E               	movf	30,w	;volatile
  3036  0FF5  0095               	movwf	21	;volatile
  3037  0FF6                     i1l1976:
  3038                           
  3039                           ;pro2.c: 648:             servo2_5();
  3040  0FF6  019B               	clrf	27	;volatile
  3041  0FF7                     i1l1978:
  3042                           
  3043                           ;pro2.c: 650:         else if (RCREG == 'c')
  3044  0FF7  3002               	movlw	2
  3045  0FF8  0622               	xorwf	_sentido2,w
  3046  0FF9  1D03               	btfss	3,2
  3047  0FFA  2FFC               	goto	u156_21
  3048  0FFB  2FFD               	goto	u156_20
  3049  0FFC                     u156_21:
  3050  0FFC  2FFF               	goto	i1l330
  3051  0FFD                     u156_20:
  3052  0FFD                     i1l1980:
  3053                           
  3054                           ;pro2.c: 651:         {;pro2.c: 652:             servo1();
  3055  0FFD  0195               	clrf	21	;volatile
  3056                           
  3057                           ;pro2.c: 653:         }
  3058  0FFE  019B               	clrf	27	;volatile
  3059  0FFF                     i1l330:
  3060  0FFF  0008               	return
  3061  1000                     __end_of_nuevo_bit_banging:
  3062                           
  3063                           	psect	text4
  3064  04DC                     __ptext4:	
  3065 ;; *************** function _servo4_4 *****************
  3066 ;; Defined at:
  3067 ;;		line 509 in file "pro2.c"
  3068 ;; Parameters:    Size  Location     Type
  3069 ;;		None
  3070 ;; Auto vars:     Size  Location     Type
  3071 ;;		None
  3072 ;; Return value:  Size  Location     Type
  3073 ;;                  1    wreg      void 
  3074 ;; Registers used:
  3075 ;;		wreg
  3076 ;; Tracked objects:
  3077 ;;		On entry : 0/0
  3078 ;;		On exit  : 0/0
  3079 ;;		Unchanged: 0/0
  3080 ;; Data sizes:     COMMON   BANK0   BANK1   BANK3   BANK2
  3081 ;;      Params:         0       0       0       0       0
  3082 ;;      Locals:         0       0       0       0       0
  3083 ;;      Temps:          2       0       0       0       0
  3084 ;;      Totals:         2       0       0       0       0
  3085 ;;Total ram usage:        2 bytes
  3086 ;; Hardware stack levels used:    1
  3087 ;; This function calls:
  3088 ;;		Nothing
  3089 ;; This function is called by:
  3090 ;;		_isr
  3091 ;;		_nuevo_bit_banging
  3092 ;; This function uses a non-reentrant model
  3093 ;;
  3094                           
  3095                           
  3096                           ;psect for function _servo4_4
  3097  04DC                     _servo4_4:
  3098  04DC                     i1l1826:	
  3099                           ;incstack = 0
  3100                           ; Regs used in _servo4_4: [wreg]
  3101                           
  3102                           
  3103                           ;pro2.c: 511: void nuevo_bit_banging(void)
  3104  04DC  1283               	bcf	3,5	;RP0=0, select bank0
  3105  04DD  1303               	bcf	3,6	;RP1=0, select bank0
  3106  04DE  1586               	bsf	6,3	;volatile
  3107  04DF                     i1l1828:
  3108                           
  3109                           ;pro2.c: 512: {
  3110  04DF  3005               	movlw	5
  3111  04E0  00F1               	movwf	??_servo4_4+1
  3112  04E1  308A               	movlw	138
  3113  04E2  00F0               	movwf	??_servo4_4
  3114  04E3                     u240_27:
  3115  04E3  0BF0               	decfsz	??_servo4_4,f
  3116  04E4  2CE3               	goto	u240_27
  3117  04E5  0BF1               	decfsz	??_servo4_4+1,f
  3118  04E6  2CE3               	goto	u240_27
  3119  04E7  0000               	nop
  3120  04E8                     i1l1830:
  3121                           
  3122                           ;pro2.c: 513:     if(M4<=50)
  3123  04E8  1283               	bcf	3,5	;RP0=0, select bank0
  3124  04E9  1303               	bcf	3,6	;RP1=0, select bank0
  3125  04EA  1186               	bcf	6,3	;volatile
  3126                           
  3127                           ;pro2.c: 514:     {
  3128  04EB  3030               	movlw	48
  3129  04EC  00F1               	movwf	??_servo4_4+1
  3130  04ED  3065               	movlw	101
  3131  04EE  00F0               	movwf	??_servo4_4
  3132  04EF                     u241_27:
  3133  04EF  0BF0               	decfsz	??_servo4_4,f
  3134  04F0  2CEF               	goto	u241_27
  3135  04F1  0BF1               	decfsz	??_servo4_4+1,f
  3136  04F2  2CEF               	goto	u241_27
  3137  04F3  2CF4               	nop2
  3138  04F4                     i1l292:
  3139  04F4  0008               	return
  3140  04F5                     __end_of_servo4_4:
  3141                           
  3142                           	psect	text5
  3143  0E7F                     __ptext5:	
  3144 ;; *************** function _servo4_3 *****************
  3145 ;; Defined at:
  3146 ;;		line 502 in file "pro2.c"
  3147 ;; Parameters:    Size  Location     Type
  3148 ;;		None
  3149 ;; Auto vars:     Size  Location     Type
  3150 ;;		None
  3151 ;; Return value:  Size  Location     Type
  3152 ;;                  1    wreg      void 
  3153 ;; Registers used:
  3154 ;;		wreg
  3155 ;; Tracked objects:
  3156 ;;		On entry : 0/0
  3157 ;;		On exit  : 0/0
  3158 ;;		Unchanged: 0/0
  3159 ;; Data sizes:     COMMON   BANK0   BANK1   BANK3   BANK2
  3160 ;;      Params:         0       0       0       0       0
  3161 ;;      Locals:         0       0       0       0       0
  3162 ;;      Temps:          2       0       0       0       0
  3163 ;;      Totals:         2       0       0       0       0
  3164 ;;Total ram usage:        2 bytes
  3165 ;; Hardware stack levels used:    1
  3166 ;; This function calls:
  3167 ;;		Nothing
  3168 ;; This function is called by:
  3169 ;;		_isr
  3170 ;;		_nuevo_bit_banging
  3171 ;; This function uses a non-reentrant model
  3172 ;;
  3173                           
  3174                           
  3175                           ;psect for function _servo4_3
  3176  0E7F                     _servo4_3:
  3177  0E7F                     i1l1820:	
  3178                           ;incstack = 0
  3179                           ; Regs used in _servo4_3: [wreg]
  3180                           
  3181                           
  3182                           ;pro2.c: 504: 
  3183  0E7F  1283               	bcf	3,5	;RP0=0, select bank0
  3184  0E80  1303               	bcf	3,6	;RP1=0, select bank0
  3185  0E81  1586               	bsf	6,3	;volatile
  3186  0E82                     i1l1822:
  3187                           
  3188                           ;pro2.c: 505:     while(PIR2bits.EEIF == 0);
  3189  0E82  3004               	movlw	4
  3190  0E83  00F1               	movwf	??_servo4_3+1
  3191  0E84  30E4               	movlw	228
  3192  0E85  00F0               	movwf	??_servo4_3
  3193  0E86                     u242_27:
  3194  0E86  0BF0               	decfsz	??_servo4_3,f
  3195  0E87  2E86               	goto	u242_27
  3196  0E88  0BF1               	decfsz	??_servo4_3+1,f
  3197  0E89  2E86               	goto	u242_27
  3198  0E8A  0000               	nop
  3199  0E8B                     i1l1824:
  3200                           
  3201                           ;pro2.c: 506:     PIR2bits.EEIF = 0;
  3202  0E8B  1283               	bcf	3,5	;RP0=0, select bank0
  3203  0E8C  1303               	bcf	3,6	;RP1=0, select bank0
  3204  0E8D  1186               	bcf	6,3	;volatile
  3205                           
  3206                           ;pro2.c: 507: 
  3207  0E8E  3031               	movlw	49
  3208  0E8F  00F1               	movwf	??_servo4_3+1
  3209  0E90  300B               	movlw	11
  3210  0E91  00F0               	movwf	??_servo4_3
  3211  0E92                     u243_27:
  3212  0E92  0BF0               	decfsz	??_servo4_3,f
  3213  0E93  2E92               	goto	u243_27
  3214  0E94  0BF1               	decfsz	??_servo4_3+1,f
  3215  0E95  2E92               	goto	u243_27
  3216  0E96  2E97               	nop2
  3217  0E97                     i1l289:
  3218  0E97  0008               	return
  3219  0E98                     __end_of_servo4_3:
  3220                           
  3221                           	psect	text6
  3222  0E66                     __ptext6:	
  3223 ;; *************** function _servo4_2 *****************
  3224 ;; Defined at:
  3225 ;;		line 495 in file "pro2.c"
  3226 ;; Parameters:    Size  Location     Type
  3227 ;;		None
  3228 ;; Auto vars:     Size  Location     Type
  3229 ;;		None
  3230 ;; Return value:  Size  Location     Type
  3231 ;;                  1    wreg      void 
  3232 ;; Registers used:
  3233 ;;		wreg
  3234 ;; Tracked objects:
  3235 ;;		On entry : 0/0
  3236 ;;		On exit  : 0/0
  3237 ;;		Unchanged: 0/0
  3238 ;; Data sizes:     COMMON   BANK0   BANK1   BANK3   BANK2
  3239 ;;      Params:         0       0       0       0       0
  3240 ;;      Locals:         0       0       0       0       0
  3241 ;;      Temps:          2       0       0       0       0
  3242 ;;      Totals:         2       0       0       0       0
  3243 ;;Total ram usage:        2 bytes
  3244 ;; Hardware stack levels used:    1
  3245 ;; This function calls:
  3246 ;;		Nothing
  3247 ;; This function is called by:
  3248 ;;		_isr
  3249 ;;		_nuevo_bit_banging
  3250 ;; This function uses a non-reentrant model
  3251 ;;
  3252                           
  3253                           
  3254                           ;psect for function _servo4_2
  3255  0E66                     _servo4_2:
  3256  0E66                     i1l1814:	
  3257                           ;incstack = 0
  3258                           ; Regs used in _servo4_2: [wreg]
  3259                           
  3260                           
  3261                           ;pro2.c: 497:     EECON1bits.WREN = 1;
  3262  0E66  1283               	bcf	3,5	;RP0=0, select bank0
  3263  0E67  1303               	bcf	3,6	;RP1=0, select bank0
  3264  0E68  1586               	bsf	6,3	;volatile
  3265  0E69                     i1l1816:
  3266                           
  3267                           ;pro2.c: 498: 
  3268  0E69  3004               	movlw	4
  3269  0E6A  00F1               	movwf	??_servo4_2+1
  3270  0E6B  303D               	movlw	61
  3271  0E6C  00F0               	movwf	??_servo4_2
  3272  0E6D                     u244_27:
  3273  0E6D  0BF0               	decfsz	??_servo4_2,f
  3274  0E6E  2E6D               	goto	u244_27
  3275  0E6F  0BF1               	decfsz	??_servo4_2+1,f
  3276  0E70  2E6D               	goto	u244_27
  3277  0E71  2E72               	nop2
  3278  0E72                     i1l1818:
  3279                           
  3280                           ;pro2.c: 499:     INTCONbits.GIE = 0;
  3281  0E72  1283               	bcf	3,5	;RP0=0, select bank0
  3282  0E73  1303               	bcf	3,6	;RP1=0, select bank0
  3283  0E74  1186               	bcf	6,3	;volatile
  3284                           
  3285                           ;pro2.c: 500:     EECON2 = 0x55;
  3286  0E75  3031               	movlw	49
  3287  0E76  00F1               	movwf	??_servo4_2+1
  3288  0E77  30B2               	movlw	178
  3289  0E78  00F0               	movwf	??_servo4_2
  3290  0E79                     u245_27:
  3291  0E79  0BF0               	decfsz	??_servo4_2,f
  3292  0E7A  2E79               	goto	u245_27
  3293  0E7B  0BF1               	decfsz	??_servo4_2+1,f
  3294  0E7C  2E79               	goto	u245_27
  3295  0E7D  0000               	nop
  3296  0E7E                     i1l286:
  3297  0E7E  0008               	return
  3298  0E7F                     __end_of_servo4_2:
  3299                           
  3300                           	psect	text7
  3301  0E4D                     __ptext7:	
  3302 ;; *************** function _servo3_4 *****************
  3303 ;; Defined at:
  3304 ;;		line 473 in file "pro2.c"
  3305 ;; Parameters:    Size  Location     Type
  3306 ;;		None
  3307 ;; Auto vars:     Size  Location     Type
  3308 ;;		None
  3309 ;; Return value:  Size  Location     Type
  3310 ;;                  1    wreg      void 
  3311 ;; Registers used:
  3312 ;;		wreg
  3313 ;; Tracked objects:
  3314 ;;		On entry : 0/0
  3315 ;;		On exit  : 0/0
  3316 ;;		Unchanged: 0/0
  3317 ;; Data sizes:     COMMON   BANK0   BANK1   BANK3   BANK2
  3318 ;;      Params:         0       0       0       0       0
  3319 ;;      Locals:         0       0       0       0       0
  3320 ;;      Temps:          2       0       0       0       0
  3321 ;;      Totals:         2       0       0       0       0
  3322 ;;Total ram usage:        2 bytes
  3323 ;; Hardware stack levels used:    1
  3324 ;; This function calls:
  3325 ;;		Nothing
  3326 ;; This function is called by:
  3327 ;;		_isr
  3328 ;;		_nuevo_bit_banging
  3329 ;; This function uses a non-reentrant model
  3330 ;;
  3331                           
  3332                           
  3333                           ;psect for function _servo3_4
  3334  0E4D                     _servo3_4:
  3335  0E4D                     i1l1796:	
  3336                           ;incstack = 0
  3337                           ; Regs used in _servo3_4: [wreg]
  3338                           
  3339                           
  3340                           ;pro2.c: 475: }
  3341  0E4D  1283               	bcf	3,5	;RP0=0, select bank0
  3342  0E4E  1303               	bcf	3,6	;RP1=0, select bank0
  3343  0E4F  1506               	bsf	6,2	;volatile
  3344  0E50                     i1l1798:
  3345                           
  3346                           ;pro2.c: 476: void servo4_5(void)
  3347  0E50  3005               	movlw	5
  3348  0E51  00F1               	movwf	??_servo3_4+1
  3349  0E52  308A               	movlw	138
  3350  0E53  00F0               	movwf	??_servo3_4
  3351  0E54                     u246_27:
  3352  0E54  0BF0               	decfsz	??_servo3_4,f
  3353  0E55  2E54               	goto	u246_27
  3354  0E56  0BF1               	decfsz	??_servo3_4+1,f
  3355  0E57  2E54               	goto	u246_27
  3356  0E58  0000               	nop
  3357  0E59                     i1l1800:
  3358                           
  3359                           ;pro2.c: 477: {
  3360  0E59  1283               	bcf	3,5	;RP0=0, select bank0
  3361  0E5A  1303               	bcf	3,6	;RP1=0, select bank0
  3362  0E5B  1106               	bcf	6,2	;volatile
  3363                           
  3364                           ;pro2.c: 478:             PORTBbits.RB3 = 1;
  3365  0E5C  3030               	movlw	48
  3366  0E5D  00F1               	movwf	??_servo3_4+1
  3367  0E5E  3065               	movlw	101
  3368  0E5F  00F0               	movwf	??_servo3_4
  3369  0E60                     u247_27:
  3370  0E60  0BF0               	decfsz	??_servo3_4,f
  3371  0E61  2E60               	goto	u247_27
  3372  0E62  0BF1               	decfsz	??_servo3_4+1,f
  3373  0E63  2E60               	goto	u247_27
  3374  0E64  2E65               	nop2
  3375  0E65                     i1l277:
  3376  0E65  0008               	return
  3377  0E66                     __end_of_servo3_4:
  3378                           
  3379                           	psect	text8
  3380  0E34                     __ptext8:	
  3381 ;; *************** function _servo3_3 *****************
  3382 ;; Defined at:
  3383 ;;		line 466 in file "pro2.c"
  3384 ;; Parameters:    Size  Location     Type
  3385 ;;		None
  3386 ;; Auto vars:     Size  Location     Type
  3387 ;;		None
  3388 ;; Return value:  Size  Location     Type
  3389 ;;                  1    wreg      void 
  3390 ;; Registers used:
  3391 ;;		wreg
  3392 ;; Tracked objects:
  3393 ;;		On entry : 0/0
  3394 ;;		On exit  : 0/0
  3395 ;;		Unchanged: 0/0
  3396 ;; Data sizes:     COMMON   BANK0   BANK1   BANK3   BANK2
  3397 ;;      Params:         0       0       0       0       0
  3398 ;;      Locals:         0       0       0       0       0
  3399 ;;      Temps:          2       0       0       0       0
  3400 ;;      Totals:         2       0       0       0       0
  3401 ;;Total ram usage:        2 bytes
  3402 ;; Hardware stack levels used:    1
  3403 ;; This function calls:
  3404 ;;		Nothing
  3405 ;; This function is called by:
  3406 ;;		_isr
  3407 ;;		_nuevo_bit_banging
  3408 ;; This function uses a non-reentrant model
  3409 ;;
  3410                           
  3411                           
  3412                           ;psect for function _servo3_3
  3413  0E34                     _servo3_3:
  3414  0E34                     i1l1790:	
  3415                           ;incstack = 0
  3416                           ; Regs used in _servo3_3: [wreg]
  3417                           
  3418                           
  3419                           ;pro2.c: 468: }
  3420  0E34  1283               	bcf	3,5	;RP0=0, select bank0
  3421  0E35  1303               	bcf	3,6	;RP1=0, select bank0
  3422  0E36  1506               	bsf	6,2	;volatile
  3423  0E37                     i1l1792:
  3424                           
  3425                           ;pro2.c: 469: void servo4_4(void)
  3426  0E37  3004               	movlw	4
  3427  0E38  00F1               	movwf	??_servo3_3+1
  3428  0E39  30E4               	movlw	228
  3429  0E3A  00F0               	movwf	??_servo3_3
  3430  0E3B                     u248_27:
  3431  0E3B  0BF0               	decfsz	??_servo3_3,f
  3432  0E3C  2E3B               	goto	u248_27
  3433  0E3D  0BF1               	decfsz	??_servo3_3+1,f
  3434  0E3E  2E3B               	goto	u248_27
  3435  0E3F  0000               	nop
  3436  0E40                     i1l1794:
  3437                           
  3438                           ;pro2.c: 470: {
  3439  0E40  1283               	bcf	3,5	;RP0=0, select bank0
  3440  0E41  1303               	bcf	3,6	;RP1=0, select bank0
  3441  0E42  1106               	bcf	6,2	;volatile
  3442                           
  3443                           ;pro2.c: 471:             PORTBbits.RB3 = 1;
  3444  0E43  3031               	movlw	49
  3445  0E44  00F1               	movwf	??_servo3_3+1
  3446  0E45  300B               	movlw	11
  3447  0E46  00F0               	movwf	??_servo3_3
  3448  0E47                     u249_27:
  3449  0E47  0BF0               	decfsz	??_servo3_3,f
  3450  0E48  2E47               	goto	u249_27
  3451  0E49  0BF1               	decfsz	??_servo3_3+1,f
  3452  0E4A  2E47               	goto	u249_27
  3453  0E4B  2E4C               	nop2
  3454  0E4C                     i1l274:
  3455  0E4C  0008               	return
  3456  0E4D                     __end_of_servo3_3:
  3457                           
  3458                           	psect	text9
  3459  0E1B                     __ptext9:	
  3460 ;; *************** function _servo3_2 *****************
  3461 ;; Defined at:
  3462 ;;		line 459 in file "pro2.c"
  3463 ;; Parameters:    Size  Location     Type
  3464 ;;		None
  3465 ;; Auto vars:     Size  Location     Type
  3466 ;;		None
  3467 ;; Return value:  Size  Location     Type
  3468 ;;                  1    wreg      void 
  3469 ;; Registers used:
  3470 ;;		wreg
  3471 ;; Tracked objects:
  3472 ;;		On entry : 0/0
  3473 ;;		On exit  : 0/0
  3474 ;;		Unchanged: 0/0
  3475 ;; Data sizes:     COMMON   BANK0   BANK1   BANK3   BANK2
  3476 ;;      Params:         0       0       0       0       0
  3477 ;;      Locals:         0       0       0       0       0
  3478 ;;      Temps:          2       0       0       0       0
  3479 ;;      Totals:         2       0       0       0       0
  3480 ;;Total ram usage:        2 bytes
  3481 ;; Hardware stack levels used:    1
  3482 ;; This function calls:
  3483 ;;		Nothing
  3484 ;; This function is called by:
  3485 ;;		_isr
  3486 ;;		_nuevo_bit_banging
  3487 ;; This function uses a non-reentrant model
  3488 ;;
  3489                           
  3490                           
  3491                           ;psect for function _servo3_2
  3492  0E1B                     _servo3_2:
  3493  0E1B                     i1l1784:	
  3494                           ;incstack = 0
  3495                           ; Regs used in _servo3_2: [wreg]
  3496                           
  3497                           
  3498                           ;pro2.c: 461: }
  3499  0E1B  1283               	bcf	3,5	;RP0=0, select bank0
  3500  0E1C  1303               	bcf	3,6	;RP1=0, select bank0
  3501  0E1D  1506               	bsf	6,2	;volatile
  3502  0E1E                     i1l1786:
  3503                           
  3504                           ;pro2.c: 462: void servo4_3(void)
  3505  0E1E  3004               	movlw	4
  3506  0E1F  00F1               	movwf	??_servo3_2+1
  3507  0E20  303D               	movlw	61
  3508  0E21  00F0               	movwf	??_servo3_2
  3509  0E22                     u250_27:
  3510  0E22  0BF0               	decfsz	??_servo3_2,f
  3511  0E23  2E22               	goto	u250_27
  3512  0E24  0BF1               	decfsz	??_servo3_2+1,f
  3513  0E25  2E22               	goto	u250_27
  3514  0E26  2E27               	nop2
  3515  0E27                     i1l1788:
  3516                           
  3517                           ;pro2.c: 463: {
  3518  0E27  1283               	bcf	3,5	;RP0=0, select bank0
  3519  0E28  1303               	bcf	3,6	;RP1=0, select bank0
  3520  0E29  1106               	bcf	6,2	;volatile
  3521                           
  3522                           ;pro2.c: 464:             PORTBbits.RB3 = 1;
  3523  0E2A  3031               	movlw	49
  3524  0E2B  00F1               	movwf	??_servo3_2+1
  3525  0E2C  30B2               	movlw	178
  3526  0E2D  00F0               	movwf	??_servo3_2
  3527  0E2E                     u251_27:
  3528  0E2E  0BF0               	decfsz	??_servo3_2,f
  3529  0E2F  2E2E               	goto	u251_27
  3530  0E30  0BF1               	decfsz	??_servo3_2+1,f
  3531  0E31  2E2E               	goto	u251_27
  3532  0E32  0000               	nop
  3533  0E33                     i1l271:
  3534  0E33  0008               	return
  3535  0E34                     __end_of_servo3_2:
  3536                           
  3537                           	psect	text10
  3538  0E02                     __ptext10:	
  3539 ;; *************** function _servo2_4 *****************
  3540 ;; Defined at:
  3541 ;;		line 437 in file "pro2.c"
  3542 ;; Parameters:    Size  Location     Type
  3543 ;;		None
  3544 ;; Auto vars:     Size  Location     Type
  3545 ;;		None
  3546 ;; Return value:  Size  Location     Type
  3547 ;;                  1    wreg      void 
  3548 ;; Registers used:
  3549 ;;		wreg
  3550 ;; Tracked objects:
  3551 ;;		On entry : 0/0
  3552 ;;		On exit  : 0/0
  3553 ;;		Unchanged: 0/0
  3554 ;; Data sizes:     COMMON   BANK0   BANK1   BANK3   BANK2
  3555 ;;      Params:         0       0       0       0       0
  3556 ;;      Locals:         0       0       0       0       0
  3557 ;;      Temps:          2       0       0       0       0
  3558 ;;      Totals:         2       0       0       0       0
  3559 ;;Total ram usage:        2 bytes
  3560 ;; Hardware stack levels used:    1
  3561 ;; This function calls:
  3562 ;;		Nothing
  3563 ;; This function is called by:
  3564 ;;		_isr
  3565 ;;		_nuevo_bit_banging
  3566 ;; This function uses a non-reentrant model
  3567 ;;
  3568                           
  3569                           
  3570                           ;psect for function _servo2_4
  3571  0E02                     _servo2_4:
  3572  0E02                     i1l1766:	
  3573                           ;incstack = 0
  3574                           ; Regs used in _servo2_4: [wreg]
  3575                           
  3576                           
  3577                           ;pro2.c: 439: }
  3578  0E02  1283               	bcf	3,5	;RP0=0, select bank0
  3579  0E03  1303               	bcf	3,6	;RP1=0, select bank0
  3580  0E04  1486               	bsf	6,1	;volatile
  3581  0E05                     i1l1768:
  3582                           
  3583                           ;pro2.c: 440: void servo3_5(void)
  3584  0E05  3005               	movlw	5
  3585  0E06  00F1               	movwf	??_servo2_4+1
  3586  0E07  308A               	movlw	138
  3587  0E08  00F0               	movwf	??_servo2_4
  3588  0E09                     u252_27:
  3589  0E09  0BF0               	decfsz	??_servo2_4,f
  3590  0E0A  2E09               	goto	u252_27
  3591  0E0B  0BF1               	decfsz	??_servo2_4+1,f
  3592  0E0C  2E09               	goto	u252_27
  3593  0E0D  0000               	nop
  3594  0E0E                     i1l1770:
  3595                           
  3596                           ;pro2.c: 441: {
  3597  0E0E  1283               	bcf	3,5	;RP0=0, select bank0
  3598  0E0F  1303               	bcf	3,6	;RP1=0, select bank0
  3599  0E10  1086               	bcf	6,1	;volatile
  3600                           
  3601                           ;pro2.c: 442:             PORTBbits.RB2 = 1;
  3602  0E11  3030               	movlw	48
  3603  0E12  00F1               	movwf	??_servo2_4+1
  3604  0E13  3065               	movlw	101
  3605  0E14  00F0               	movwf	??_servo2_4
  3606  0E15                     u253_27:
  3607  0E15  0BF0               	decfsz	??_servo2_4,f
  3608  0E16  2E15               	goto	u253_27
  3609  0E17  0BF1               	decfsz	??_servo2_4+1,f
  3610  0E18  2E15               	goto	u253_27
  3611  0E19  2E1A               	nop2
  3612  0E1A                     i1l262:
  3613  0E1A  0008               	return
  3614  0E1B                     __end_of_servo2_4:
  3615                           
  3616                           	psect	text11
  3617  0DE9                     __ptext11:	
  3618 ;; *************** function _servo2_3 *****************
  3619 ;; Defined at:
  3620 ;;		line 430 in file "pro2.c"
  3621 ;; Parameters:    Size  Location     Type
  3622 ;;		None
  3623 ;; Auto vars:     Size  Location     Type
  3624 ;;		None
  3625 ;; Return value:  Size  Location     Type
  3626 ;;                  1    wreg      void 
  3627 ;; Registers used:
  3628 ;;		wreg
  3629 ;; Tracked objects:
  3630 ;;		On entry : 0/0
  3631 ;;		On exit  : 0/0
  3632 ;;		Unchanged: 0/0
  3633 ;; Data sizes:     COMMON   BANK0   BANK1   BANK3   BANK2
  3634 ;;      Params:         0       0       0       0       0
  3635 ;;      Locals:         0       0       0       0       0
  3636 ;;      Temps:          2       0       0       0       0
  3637 ;;      Totals:         2       0       0       0       0
  3638 ;;Total ram usage:        2 bytes
  3639 ;; Hardware stack levels used:    1
  3640 ;; This function calls:
  3641 ;;		Nothing
  3642 ;; This function is called by:
  3643 ;;		_isr
  3644 ;;		_nuevo_bit_banging
  3645 ;; This function uses a non-reentrant model
  3646 ;;
  3647                           
  3648                           
  3649                           ;psect for function _servo2_3
  3650  0DE9                     _servo2_3:
  3651  0DE9                     i1l1760:	
  3652                           ;incstack = 0
  3653                           ; Regs used in _servo2_3: [wreg]
  3654                           
  3655                           
  3656                           ;pro2.c: 432: }
  3657  0DE9  1283               	bcf	3,5	;RP0=0, select bank0
  3658  0DEA  1303               	bcf	3,6	;RP1=0, select bank0
  3659  0DEB  1486               	bsf	6,1	;volatile
  3660  0DEC                     i1l1762:
  3661                           
  3662                           ;pro2.c: 433: void servo3_4(void)
  3663  0DEC  3004               	movlw	4
  3664  0DED  00F1               	movwf	??_servo2_3+1
  3665  0DEE  30E4               	movlw	228
  3666  0DEF  00F0               	movwf	??_servo2_3
  3667  0DF0                     u254_27:
  3668  0DF0  0BF0               	decfsz	??_servo2_3,f
  3669  0DF1  2DF0               	goto	u254_27
  3670  0DF2  0BF1               	decfsz	??_servo2_3+1,f
  3671  0DF3  2DF0               	goto	u254_27
  3672  0DF4  0000               	nop
  3673  0DF5                     i1l1764:
  3674                           
  3675                           ;pro2.c: 434: {
  3676  0DF5  1283               	bcf	3,5	;RP0=0, select bank0
  3677  0DF6  1303               	bcf	3,6	;RP1=0, select bank0
  3678  0DF7  1086               	bcf	6,1	;volatile
  3679                           
  3680                           ;pro2.c: 435:             PORTBbits.RB2 = 1;
  3681  0DF8  3031               	movlw	49
  3682  0DF9  00F1               	movwf	??_servo2_3+1
  3683  0DFA  300B               	movlw	11
  3684  0DFB  00F0               	movwf	??_servo2_3
  3685  0DFC                     u255_27:
  3686  0DFC  0BF0               	decfsz	??_servo2_3,f
  3687  0DFD  2DFC               	goto	u255_27
  3688  0DFE  0BF1               	decfsz	??_servo2_3+1,f
  3689  0DFF  2DFC               	goto	u255_27
  3690  0E00  2E01               	nop2
  3691  0E01                     i1l259:
  3692  0E01  0008               	return
  3693  0E02                     __end_of_servo2_3:
  3694                           
  3695                           	psect	text12
  3696  0DD0                     __ptext12:	
  3697 ;; *************** function _servo2_2 *****************
  3698 ;; Defined at:
  3699 ;;		line 423 in file "pro2.c"
  3700 ;; Parameters:    Size  Location     Type
  3701 ;;		None
  3702 ;; Auto vars:     Size  Location     Type
  3703 ;;		None
  3704 ;; Return value:  Size  Location     Type
  3705 ;;                  1    wreg      void 
  3706 ;; Registers used:
  3707 ;;		wreg
  3708 ;; Tracked objects:
  3709 ;;		On entry : 0/0
  3710 ;;		On exit  : 0/0
  3711 ;;		Unchanged: 0/0
  3712 ;; Data sizes:     COMMON   BANK0   BANK1   BANK3   BANK2
  3713 ;;      Params:         0       0       0       0       0
  3714 ;;      Locals:         0       0       0       0       0
  3715 ;;      Temps:          2       0       0       0       0
  3716 ;;      Totals:         2       0       0       0       0
  3717 ;;Total ram usage:        2 bytes
  3718 ;; Hardware stack levels used:    1
  3719 ;; This function calls:
  3720 ;;		Nothing
  3721 ;; This function is called by:
  3722 ;;		_isr
  3723 ;;		_nuevo_bit_banging
  3724 ;; This function uses a non-reentrant model
  3725 ;;
  3726                           
  3727                           
  3728                           ;psect for function _servo2_2
  3729  0DD0                     _servo2_2:
  3730  0DD0                     i1l1754:	
  3731                           ;incstack = 0
  3732                           ; Regs used in _servo2_2: [wreg]
  3733                           
  3734                           
  3735                           ;pro2.c: 425: }
  3736  0DD0  1283               	bcf	3,5	;RP0=0, select bank0
  3737  0DD1  1303               	bcf	3,6	;RP1=0, select bank0
  3738  0DD2  1486               	bsf	6,1	;volatile
  3739  0DD3                     i1l1756:
  3740                           
  3741                           ;pro2.c: 426: void servo3_3(void)
  3742  0DD3  3004               	movlw	4
  3743  0DD4  00F1               	movwf	??_servo2_2+1
  3744  0DD5  303D               	movlw	61
  3745  0DD6  00F0               	movwf	??_servo2_2
  3746  0DD7                     u256_27:
  3747  0DD7  0BF0               	decfsz	??_servo2_2,f
  3748  0DD8  2DD7               	goto	u256_27
  3749  0DD9  0BF1               	decfsz	??_servo2_2+1,f
  3750  0DDA  2DD7               	goto	u256_27
  3751  0DDB  2DDC               	nop2
  3752  0DDC                     i1l1758:
  3753                           
  3754                           ;pro2.c: 427: {
  3755  0DDC  1283               	bcf	3,5	;RP0=0, select bank0
  3756  0DDD  1303               	bcf	3,6	;RP1=0, select bank0
  3757  0DDE  1086               	bcf	6,1	;volatile
  3758                           
  3759                           ;pro2.c: 428:             PORTBbits.RB2 = 1;
  3760  0DDF  3031               	movlw	49
  3761  0DE0  00F1               	movwf	??_servo2_2+1
  3762  0DE1  30B2               	movlw	178
  3763  0DE2  00F0               	movwf	??_servo2_2
  3764  0DE3                     u257_27:
  3765  0DE3  0BF0               	decfsz	??_servo2_2,f
  3766  0DE4  2DE3               	goto	u257_27
  3767  0DE5  0BF1               	decfsz	??_servo2_2+1,f
  3768  0DE6  2DE3               	goto	u257_27
  3769  0DE7  0000               	nop
  3770  0DE8                     i1l256:
  3771  0DE8  0008               	return
  3772  0DE9                     __end_of_servo2_2:
  3773                           
  3774                           	psect	text13
  3775  0DB7                     __ptext13:	
  3776 ;; *************** function _servo1_4 *****************
  3777 ;; Defined at:
  3778 ;;		line 401 in file "pro2.c"
  3779 ;; Parameters:    Size  Location     Type
  3780 ;;		None
  3781 ;; Auto vars:     Size  Location     Type
  3782 ;;		None
  3783 ;; Return value:  Size  Location     Type
  3784 ;;                  1    wreg      void 
  3785 ;; Registers used:
  3786 ;;		wreg
  3787 ;; Tracked objects:
  3788 ;;		On entry : 0/0
  3789 ;;		On exit  : 0/0
  3790 ;;		Unchanged: 0/0
  3791 ;; Data sizes:     COMMON   BANK0   BANK1   BANK3   BANK2
  3792 ;;      Params:         0       0       0       0       0
  3793 ;;      Locals:         0       0       0       0       0
  3794 ;;      Temps:          2       0       0       0       0
  3795 ;;      Totals:         2       0       0       0       0
  3796 ;;Total ram usage:        2 bytes
  3797 ;; Hardware stack levels used:    1
  3798 ;; This function calls:
  3799 ;;		Nothing
  3800 ;; This function is called by:
  3801 ;;		_isr
  3802 ;;		_nuevo_bit_banging
  3803 ;; This function uses a non-reentrant model
  3804 ;;
  3805                           
  3806                           
  3807                           ;psect for function _servo1_4
  3808  0DB7                     _servo1_4:
  3809  0DB7                     i1l1736:	
  3810                           ;incstack = 0
  3811                           ; Regs used in _servo1_4: [wreg]
  3812                           
  3813                           
  3814                           ;pro2.c: 403: }
  3815  0DB7  1283               	bcf	3,5	;RP0=0, select bank0
  3816  0DB8  1303               	bcf	3,6	;RP1=0, select bank0
  3817  0DB9  1406               	bsf	6,0	;volatile
  3818  0DBA                     i1l1738:
  3819                           
  3820                           ;pro2.c: 404: void servo2_5(void)
  3821  0DBA  3005               	movlw	5
  3822  0DBB  00F1               	movwf	??_servo1_4+1
  3823  0DBC  308A               	movlw	138
  3824  0DBD  00F0               	movwf	??_servo1_4
  3825  0DBE                     u258_27:
  3826  0DBE  0BF0               	decfsz	??_servo1_4,f
  3827  0DBF  2DBE               	goto	u258_27
  3828  0DC0  0BF1               	decfsz	??_servo1_4+1,f
  3829  0DC1  2DBE               	goto	u258_27
  3830  0DC2  0000               	nop
  3831  0DC3                     i1l1740:
  3832                           
  3833                           ;pro2.c: 405: {
  3834  0DC3  1283               	bcf	3,5	;RP0=0, select bank0
  3835  0DC4  1303               	bcf	3,6	;RP1=0, select bank0
  3836  0DC5  1006               	bcf	6,0	;volatile
  3837                           
  3838                           ;pro2.c: 406:             PORTBbits.RB1 = 1;
  3839  0DC6  3030               	movlw	48
  3840  0DC7  00F1               	movwf	??_servo1_4+1
  3841  0DC8  3065               	movlw	101
  3842  0DC9  00F0               	movwf	??_servo1_4
  3843  0DCA                     u259_27:
  3844  0DCA  0BF0               	decfsz	??_servo1_4,f
  3845  0DCB  2DCA               	goto	u259_27
  3846  0DCC  0BF1               	decfsz	??_servo1_4+1,f
  3847  0DCD  2DCA               	goto	u259_27
  3848  0DCE  2DCF               	nop2
  3849  0DCF                     i1l247:
  3850  0DCF  0008               	return
  3851  0DD0                     __end_of_servo1_4:
  3852                           
  3853                           	psect	text14
  3854  0D9E                     __ptext14:	
  3855 ;; *************** function _servo1_3 *****************
  3856 ;; Defined at:
  3857 ;;		line 394 in file "pro2.c"
  3858 ;; Parameters:    Size  Location     Type
  3859 ;;		None
  3860 ;; Auto vars:     Size  Location     Type
  3861 ;;		None
  3862 ;; Return value:  Size  Location     Type
  3863 ;;                  1    wreg      void 
  3864 ;; Registers used:
  3865 ;;		wreg
  3866 ;; Tracked objects:
  3867 ;;		On entry : 0/0
  3868 ;;		On exit  : 0/0
  3869 ;;		Unchanged: 0/0
  3870 ;; Data sizes:     COMMON   BANK0   BANK1   BANK3   BANK2
  3871 ;;      Params:         0       0       0       0       0
  3872 ;;      Locals:         0       0       0       0       0
  3873 ;;      Temps:          2       0       0       0       0
  3874 ;;      Totals:         2       0       0       0       0
  3875 ;;Total ram usage:        2 bytes
  3876 ;; Hardware stack levels used:    1
  3877 ;; This function calls:
  3878 ;;		Nothing
  3879 ;; This function is called by:
  3880 ;;		_isr
  3881 ;;		_nuevo_bit_banging
  3882 ;; This function uses a non-reentrant model
  3883 ;;
  3884                           
  3885                           
  3886                           ;psect for function _servo1_3
  3887  0D9E                     _servo1_3:
  3888  0D9E                     i1l1730:	
  3889                           ;incstack = 0
  3890                           ; Regs used in _servo1_3: [wreg]
  3891                           
  3892                           
  3893                           ;pro2.c: 396: }
  3894  0D9E  1283               	bcf	3,5	;RP0=0, select bank0
  3895  0D9F  1303               	bcf	3,6	;RP1=0, select bank0
  3896  0DA0  1406               	bsf	6,0	;volatile
  3897  0DA1                     i1l1732:
  3898                           
  3899                           ;pro2.c: 397: void servo2_4(void)
  3900  0DA1  3004               	movlw	4
  3901  0DA2  00F1               	movwf	??_servo1_3+1
  3902  0DA3  30E4               	movlw	228
  3903  0DA4  00F0               	movwf	??_servo1_3
  3904  0DA5                     u260_27:
  3905  0DA5  0BF0               	decfsz	??_servo1_3,f
  3906  0DA6  2DA5               	goto	u260_27
  3907  0DA7  0BF1               	decfsz	??_servo1_3+1,f
  3908  0DA8  2DA5               	goto	u260_27
  3909  0DA9  0000               	nop
  3910  0DAA                     i1l1734:
  3911                           
  3912                           ;pro2.c: 398: {
  3913  0DAA  1283               	bcf	3,5	;RP0=0, select bank0
  3914  0DAB  1303               	bcf	3,6	;RP1=0, select bank0
  3915  0DAC  1006               	bcf	6,0	;volatile
  3916                           
  3917                           ;pro2.c: 399:             PORTBbits.RB1 = 1;
  3918  0DAD  3031               	movlw	49
  3919  0DAE  00F1               	movwf	??_servo1_3+1
  3920  0DAF  300B               	movlw	11
  3921  0DB0  00F0               	movwf	??_servo1_3
  3922  0DB1                     u261_27:
  3923  0DB1  0BF0               	decfsz	??_servo1_3,f
  3924  0DB2  2DB1               	goto	u261_27
  3925  0DB3  0BF1               	decfsz	??_servo1_3+1,f
  3926  0DB4  2DB1               	goto	u261_27
  3927  0DB5  2DB6               	nop2
  3928  0DB6                     i1l244:
  3929  0DB6  0008               	return
  3930  0DB7                     __end_of_servo1_3:
  3931                           
  3932                           	psect	text15
  3933  0D85                     __ptext15:	
  3934 ;; *************** function _servo1_2 *****************
  3935 ;; Defined at:
  3936 ;;		line 387 in file "pro2.c"
  3937 ;; Parameters:    Size  Location     Type
  3938 ;;		None
  3939 ;; Auto vars:     Size  Location     Type
  3940 ;;		None
  3941 ;; Return value:  Size  Location     Type
  3942 ;;                  1    wreg      void 
  3943 ;; Registers used:
  3944 ;;		wreg
  3945 ;; Tracked objects:
  3946 ;;		On entry : 0/0
  3947 ;;		On exit  : 0/0
  3948 ;;		Unchanged: 0/0
  3949 ;; Data sizes:     COMMON   BANK0   BANK1   BANK3   BANK2
  3950 ;;      Params:         0       0       0       0       0
  3951 ;;      Locals:         0       0       0       0       0
  3952 ;;      Temps:          2       0       0       0       0
  3953 ;;      Totals:         2       0       0       0       0
  3954 ;;Total ram usage:        2 bytes
  3955 ;; Hardware stack levels used:    1
  3956 ;; This function calls:
  3957 ;;		Nothing
  3958 ;; This function is called by:
  3959 ;;		_isr
  3960 ;;		_nuevo_bit_banging
  3961 ;; This function uses a non-reentrant model
  3962 ;;
  3963                           
  3964                           
  3965                           ;psect for function _servo1_2
  3966  0D85                     _servo1_2:
  3967  0D85                     i1l1724:	
  3968                           ;incstack = 0
  3969                           ; Regs used in _servo1_2: [wreg]
  3970                           
  3971                           
  3972                           ;pro2.c: 389: }
  3973  0D85  1283               	bcf	3,5	;RP0=0, select bank0
  3974  0D86  1303               	bcf	3,6	;RP1=0, select bank0
  3975  0D87  1406               	bsf	6,0	;volatile
  3976  0D88                     i1l1726:
  3977                           
  3978                           ;pro2.c: 390: void servo2_3(void)
  3979  0D88  3004               	movlw	4
  3980  0D89  00F1               	movwf	??_servo1_2+1
  3981  0D8A  303D               	movlw	61
  3982  0D8B  00F0               	movwf	??_servo1_2
  3983  0D8C                     u262_27:
  3984  0D8C  0BF0               	decfsz	??_servo1_2,f
  3985  0D8D  2D8C               	goto	u262_27
  3986  0D8E  0BF1               	decfsz	??_servo1_2+1,f
  3987  0D8F  2D8C               	goto	u262_27
  3988  0D90  2D91               	nop2
  3989  0D91                     i1l1728:
  3990                           
  3991                           ;pro2.c: 391: {
  3992  0D91  1283               	bcf	3,5	;RP0=0, select bank0
  3993  0D92  1303               	bcf	3,6	;RP1=0, select bank0
  3994  0D93  1006               	bcf	6,0	;volatile
  3995                           
  3996                           ;pro2.c: 392:             PORTBbits.RB1 = 1;
  3997  0D94  3031               	movlw	49
  3998  0D95  00F1               	movwf	??_servo1_2+1
  3999  0D96  30B2               	movlw	178
  4000  0D97  00F0               	movwf	??_servo1_2
  4001  0D98                     u263_27:
  4002  0D98  0BF0               	decfsz	??_servo1_2,f
  4003  0D99  2D98               	goto	u263_27
  4004  0D9A  0BF1               	decfsz	??_servo1_2+1,f
  4005  0D9B  2D98               	goto	u263_27
  4006  0D9C  0000               	nop
  4007  0D9D                     i1l241:
  4008  0D9D  0008               	return
  4009  0D9E                     __end_of_servo1_2:
  4010                           
  4011                           	psect	text16
  4012  02B8                     __ptext16:	
  4013 ;; *************** function _menu *****************
  4014 ;; Defined at:
  4015 ;;		line 657 in file "pro2.c"
  4016 ;; Parameters:    Size  Location     Type
  4017 ;;		None
  4018 ;; Auto vars:     Size  Location     Type
  4019 ;;		None
  4020 ;; Return value:  Size  Location     Type
  4021 ;;                  1    wreg      void 
  4022 ;; Registers used:
  4023 ;;		wreg, fsr0l, fsr0h, status,2, status,0, btemp+1, pclath, cstack
  4024 ;; Tracked objects:
  4025 ;;		On entry : 0/0
  4026 ;;		On exit  : 0/0
  4027 ;;		Unchanged: 0/0
  4028 ;; Data sizes:     COMMON   BANK0   BANK1   BANK3   BANK2
  4029 ;;      Params:         0       0       0       0       0
  4030 ;;      Locals:         0       0       0       0       0
  4031 ;;      Temps:          2       0       0       0       0
  4032 ;;      Totals:         2       0       0       0       0
  4033 ;;Total ram usage:        2 bytes
  4034 ;; Hardware stack levels used:    1
  4035 ;; Hardware stack levels required when called:    2
  4036 ;; This function calls:
  4037 ;;		_printf
  4038 ;;		_servo1
  4039 ;;		_servo1_5
  4040 ;;		_servo2
  4041 ;;		_servo2_5
  4042 ;;		_servo3
  4043 ;;		_servo3_5
  4044 ;;		_servo4
  4045 ;;		_servo4_5
  4046 ;; This function is called by:
  4047 ;;		_isr
  4048 ;; This function uses a non-reentrant model
  4049 ;;
  4050                           
  4051                           
  4052                           ;psect for function _menu
  4053  02B8                     _menu:
  4054  02B8                     i1l1982:	
  4055                           ;incstack = 0
  4056                           ; Regs used in _menu: [wreg-fsr0h+status,2+status,0+btemp+1+pclath+cstack]
  4057                           
  4058                           
  4059                           ;pro2.c: 658:     }
  4060  02B8  3082               	movlw	130
  4061  02B9  00F9               	movwf	??_menu+1
  4062  02BA  30DD               	movlw	221
  4063  02BB  00F8               	movwf	??_menu
  4064  02BC                     u264_27:
  4065  02BC  0BF8               	decfsz	??_menu,f
  4066  02BD  2ABC               	goto	u264_27
  4067  02BE  0BF9               	decfsz	??_menu+1,f
  4068  02BF  2ABC               	goto	u264_27
  4069  02C0  2AC1               	nop2
  4070  02C1                     i1l1984:
  4071                           
  4072                           ;pro2.c: 659:     if (RCREG == '2'){
  4073  02C1  309D               	movlw	low (STR_1| (0+32768))
  4074  02C2  00F1               	movwf	printf@f
  4075  02C3  3085               	movlw	high (STR_1| (0+32768))
  4076  02C4  00F2               	movwf	printf@f+1
  4077  02C5  120A  118A  27AF  120A  118A  	fcall	_printf
  4078  02CA                     i1l1986:
  4079                           
  4080                           ;pro2.c: 660:         _delay((unsigned long)((50)*(8000000/4000.0)));
  4081  02CA  3082               	movlw	130
  4082  02CB  00F9               	movwf	??_menu+1
  4083  02CC  30DD               	movlw	221
  4084  02CD  00F8               	movwf	??_menu
  4085  02CE                     u265_27:
  4086  02CE  0BF8               	decfsz	??_menu,f
  4087  02CF  2ACE               	goto	u265_27
  4088  02D0  0BF9               	decfsz	??_menu+1,f
  4089  02D1  2ACE               	goto	u265_27
  4090  02D2  2AD3               	nop2
  4091                           
  4092                           ;pro2.c: 661:         printf("\r(e) Mover ceja 1. \r");
  4093  02D3  309F               	movlw	low (STR_2| (0+32768))
  4094  02D4  00F1               	movwf	printf@f
  4095  02D5  3086               	movlw	high (STR_2| (0+32768))
  4096  02D6  00F2               	movwf	printf@f+1
  4097  02D7  120A  118A  27AF  120A  118A  	fcall	_printf
  4098  02DC                     i1l1988:
  4099                           
  4100                           ;pro2.c: 662:         _delay((unsigned long)((50)*(8000000/4000.0)));
  4101  02DC  3082               	movlw	130
  4102  02DD  00F9               	movwf	??_menu+1
  4103  02DE  30DD               	movlw	221
  4104  02DF  00F8               	movwf	??_menu
  4105  02E0                     u266_27:
  4106  02E0  0BF8               	decfsz	??_menu,f
  4107  02E1  2AE0               	goto	u266_27
  4108  02E2  0BF9               	decfsz	??_menu+1,f
  4109  02E3  2AE0               	goto	u266_27
  4110  02E4  2AE5               	nop2
  4111  02E5                     i1l1990:
  4112                           
  4113                           ;pro2.c: 663:         printf("(f) Mover ceja 2. \r");
  4114  02E5  308D               	movlw	low (STR_3| (0+32768))
  4115  02E6  00F1               	movwf	printf@f
  4116  02E7  3086               	movlw	high (STR_3| (0+32768))
  4117  02E8  00F2               	movwf	printf@f+1
  4118  02E9  120A  118A  27AF  120A  118A  	fcall	_printf
  4119                           
  4120                           ;pro2.c: 664:         while(RCIF == 0);
  4121  02EE  3082               	movlw	130
  4122  02EF  00F9               	movwf	??_menu+1
  4123  02F0  30DD               	movlw	221
  4124  02F1  00F8               	movwf	??_menu
  4125  02F2                     u267_27:
  4126  02F2  0BF8               	decfsz	??_menu,f
  4127  02F3  2AF2               	goto	u267_27
  4128  02F4  0BF9               	decfsz	??_menu+1,f
  4129  02F5  2AF2               	goto	u267_27
  4130  02F6  2AF7               	nop2
  4131  02F7                     i1l1992:
  4132                           
  4133                           ;pro2.c: 665: 
  4134  02F7  307A               	movlw	low (STR_4| (0+32768))
  4135  02F8  00F1               	movwf	printf@f
  4136  02F9  3086               	movlw	high (STR_4| (0+32768))
  4137  02FA  00F2               	movwf	printf@f+1
  4138  02FB  120A  118A  27AF  120A  118A  	fcall	_printf
  4139  0300                     i1l1994:
  4140                           
  4141                           ;pro2.c: 666:         if (RCREG == 'e')
  4142  0300  3082               	movlw	130
  4143  0301  00F9               	movwf	??_menu+1
  4144  0302  30DD               	movlw	221
  4145  0303  00F8               	movwf	??_menu
  4146  0304                     u268_27:
  4147  0304  0BF8               	decfsz	??_menu,f
  4148  0305  2B04               	goto	u268_27
  4149  0306  0BF9               	decfsz	??_menu+1,f
  4150  0307  2B04               	goto	u268_27
  4151  0308  2B09               	nop2
  4152                           
  4153                           ;pro2.c: 667:         {
  4154  0309  3066               	movlw	low (STR_5| (0+32768))
  4155  030A  00F1               	movwf	printf@f
  4156  030B  3086               	movlw	high (STR_5| (0+32768))
  4157  030C  00F2               	movwf	printf@f+1
  4158  030D  120A  118A  27AF  120A  118A  	fcall	_printf
  4159  0312                     i1l333:	
  4160                           ;pro2.c: 668:         _delay((unsigned long)((50)*(8000000/4000.0)));
  4161                           
  4162  0312  1283               	bcf	3,5	;RP0=0, select bank0
  4163  0313  1303               	bcf	3,6	;RP1=0, select bank0
  4164  0314  1E8C               	btfss	12,5	;volatile
  4165  0315  2B17               	goto	u157_21
  4166  0316  2B18               	goto	u157_20
  4167  0317                     u157_21:
  4168  0317  2B12               	goto	i1l333
  4169  0318                     u157_20:
  4170  0318                     i1l1996:
  4171                           
  4172                           ;pro2.c: 671:         printf("(7) Mover ceja para abajo. \r");
  4173  0318  3031               	movlw	49
  4174  0319  061A               	xorwf	26,w	;volatile
  4175  031A  1D03               	btfss	3,2
  4176  031B  2B1D               	goto	u158_21
  4177  031C  2B1E               	goto	u158_20
  4178  031D                     u158_21:
  4179  031D  2B9C               	goto	i1l2026
  4180  031E                     u158_20:
  4181  031E                     i1l1998:
  4182                           
  4183                           ;pro2.c: 672:         while(RCIF == 0);
  4184  031E  3082               	movlw	130
  4185  031F  00F9               	movwf	??_menu+1
  4186  0320  30DD               	movlw	221
  4187  0321  00F8               	movwf	??_menu
  4188  0322                     u269_27:
  4189  0322  0BF8               	decfsz	??_menu,f
  4190  0323  2B22               	goto	u269_27
  4191  0324  0BF9               	decfsz	??_menu+1,f
  4192  0325  2B22               	goto	u269_27
  4193  0326  2B27               	nop2
  4194  0327                     i1l2000:
  4195                           
  4196                           ;pro2.c: 673:         if(RCREG == '6')
  4197  0327  3000               	movlw	low (STR_6| (0+32768))
  4198  0328  00F1               	movwf	printf@f
  4199  0329  3085               	movlw	high (STR_6| (0+32768))
  4200  032A  00F2               	movwf	printf@f+1
  4201  032B  120A  118A  27AF  120A  118A  	fcall	_printf
  4202  0330                     i1l2002:
  4203                           
  4204                           ;pro2.c: 675:             servo3();
  4205  0330  3082               	movlw	130
  4206  0331  00F9               	movwf	??_menu+1
  4207  0332  30DD               	movlw	221
  4208  0333  00F8               	movwf	??_menu
  4209  0334                     u270_27:
  4210  0334  0BF8               	decfsz	??_menu,f
  4211  0335  2B34               	goto	u270_27
  4212  0336  0BF9               	decfsz	??_menu+1,f
  4213  0337  2B34               	goto	u270_27
  4214  0338  2B39               	nop2
  4215                           
  4216                           ;pro2.c: 676:         }
  4217  0339  3060               	movlw	low (STR_7| (0+32768))
  4218  033A  00F1               	movwf	printf@f
  4219  033B  3085               	movlw	high (STR_7| (0+32768))
  4220  033C  00F2               	movwf	printf@f+1
  4221  033D  120A  118A  27AF  120A  118A  	fcall	_printf
  4222  0342                     i1l2004:
  4223                           
  4224                           ;pro2.c: 677:         if(RCREG == '7')
  4225  0342  3082               	movlw	130
  4226  0343  00F9               	movwf	??_menu+1
  4227  0344  30DD               	movlw	221
  4228  0345  00F8               	movwf	??_menu
  4229  0346                     u271_27:
  4230  0346  0BF8               	decfsz	??_menu,f
  4231  0347  2B46               	goto	u271_27
  4232  0348  0BF9               	decfsz	??_menu+1,f
  4233  0349  2B46               	goto	u271_27
  4234  034A  2B4B               	nop2
  4235  034B                     i1l2006:
  4236                           
  4237                           ;pro2.c: 678:         {
  4238  034B  307F               	movlw	low (STR_8| (0+32768))
  4239  034C  00F1               	movwf	printf@f
  4240  034D  3085               	movlw	high (STR_8| (0+32768))
  4241  034E  00F2               	movwf	printf@f+1
  4242  034F  120A  118A  27AF  120A  118A  	fcall	_printf
  4243                           
  4244                           ;pro2.c: 679:             servo3_5();
  4245  0354  3082               	movlw	130
  4246  0355  00F9               	movwf	??_menu+1
  4247  0356  30DD               	movlw	221
  4248  0357  00F8               	movwf	??_menu
  4249  0358                     u272_27:
  4250  0358  0BF8               	decfsz	??_menu,f
  4251  0359  2B58               	goto	u272_27
  4252  035A  0BF9               	decfsz	??_menu+1,f
  4253  035B  2B58               	goto	u272_27
  4254  035C  2B5D               	nop2
  4255  035D                     i1l2008:
  4256                           
  4257                           ;pro2.c: 680:         }
  4258  035D  30F5               	movlw	low (STR_9| (0+32768))
  4259  035E  00F1               	movwf	printf@f
  4260  035F  3085               	movlw	high (STR_9| (0+32768))
  4261  0360  00F2               	movwf	printf@f+1
  4262  0361  120A  118A  27AF  120A  118A  	fcall	_printf
  4263  0366                     i1l337:	
  4264                           ;pro2.c: 681:         }
  4265                           
  4266  0366  1283               	bcf	3,5	;RP0=0, select bank0
  4267  0367  1303               	bcf	3,6	;RP1=0, select bank0
  4268  0368  1E8C               	btfss	12,5	;volatile
  4269  0369  2B6B               	goto	u159_21
  4270  036A  2B6C               	goto	u159_20
  4271  036B                     u159_21:
  4272  036B  2B66               	goto	i1l337
  4273  036C                     u159_20:
  4274  036C                     i1l2010:
  4275                           
  4276                           ;pro2.c: 682:         else if (RCREG == 'f')
  4277  036C  3061               	movlw	97
  4278  036D  061A               	xorwf	26,w	;volatile
  4279  036E  1D03               	btfss	3,2
  4280  036F  2B71               	goto	u160_21
  4281  0370  2B72               	goto	u160_20
  4282  0371                     u160_21:
  4283  0371  2B78               	goto	i1l2014
  4284  0372                     u160_20:
  4285  0372                     i1l2012:
  4286                           
  4287                           ;pro2.c: 683:         {;pro2.c: 684:             _delay((unsigned long)((50)*(8000000/40
      +                          00.0)));
  4288  0372  120A  158A  24EF  120A  118A  	fcall	_servo2
  4289                           
  4290                           ;pro2.c: 685:         printf("\r(8) Mover ceja para arriba. \r");
  4291  0377  2B9C               	goto	i1l2026
  4292  0378                     i1l2014:
  4293  0378  3062               	movlw	98
  4294  0379  061A               	xorwf	26,w	;volatile
  4295  037A  1D03               	btfss	3,2
  4296  037B  2B7D               	goto	u161_21
  4297  037C  2B7E               	goto	u161_20
  4298  037D                     u161_21:
  4299  037D  2B84               	goto	i1l2018
  4300  037E                     u161_20:
  4301  037E                     i1l2016:
  4302                           
  4303                           ;pro2.c: 687:         printf("(9) Mover ceja para abajo. \r");;pro2.c: 688:         whil
      +                          e(RCIF == 0);
  4304  037E  120A  158A  2508  120A  118A  	fcall	_servo2_5
  4305                           
  4306                           ;pro2.c: 689:         if(RCREG == '8')
  4307  0383  2B9C               	goto	i1l2026
  4308  0384                     i1l2018:
  4309  0384  3063               	movlw	99
  4310  0385  061A               	xorwf	26,w	;volatile
  4311  0386  1D03               	btfss	3,2
  4312  0387  2B89               	goto	u162_21
  4313  0388  2B8A               	goto	u162_20
  4314  0389                     u162_21:
  4315  0389  2B90               	goto	i1l2022
  4316  038A                     u162_20:
  4317  038A                     i1l2020:
  4318                           
  4319                           ;pro2.c: 691:             servo4();;pro2.c: 692:         }
  4320  038A  120A  158A  24BD  120A  118A  	fcall	_servo1
  4321                           
  4322                           ;pro2.c: 693:         if(RCREG == '9')
  4323  038F  2B9C               	goto	i1l2026
  4324  0390                     i1l2022:
  4325  0390  3064               	movlw	100
  4326  0391  061A               	xorwf	26,w	;volatile
  4327  0392  1D03               	btfss	3,2
  4328  0393  2B95               	goto	u163_21
  4329  0394  2B96               	goto	u163_20
  4330  0395                     u163_21:
  4331  0395  2B9C               	goto	i1l341
  4332  0396                     u163_20:
  4333  0396                     i1l2024:
  4334                           
  4335                           ;pro2.c: 695:             servo4_5();;pro2.c: 696:         }
  4336  0396  120A  158A  24D6  120A  118A  	fcall	_servo1_5
  4337  039B  2B9C               	goto	i1l2026
  4338  039C                     i1l341:
  4339  039C                     i1l2026:
  4340                           
  4341                           ;pro2.c: 699:     if (RCREG == '3'){
  4342  039C  3032               	movlw	50
  4343  039D  1283               	bcf	3,5	;RP0=0, select bank0
  4344  039E  1303               	bcf	3,6	;RP1=0, select bank0
  4345  039F  061A               	xorwf	26,w	;volatile
  4346  03A0  1D03               	btfss	3,2
  4347  03A1  2BA3               	goto	u164_21
  4348  03A2  2BA4               	goto	u164_20
  4349  03A3                     u164_21:
  4350  03A3  2C60               	goto	i1l2066
  4351  03A4                     u164_20:
  4352  03A4                     i1l2028:
  4353                           
  4354                           ;pro2.c: 700:         _delay((unsigned long)((50)*(8000000/4000.0)));
  4355  03A4  3082               	movlw	130
  4356  03A5  00F9               	movwf	??_menu+1
  4357  03A6  30DD               	movlw	221
  4358  03A7  00F8               	movwf	??_menu
  4359  03A8                     u273_27:
  4360  03A8  0BF8               	decfsz	??_menu,f
  4361  03A9  2BA8               	goto	u273_27
  4362  03AA  0BF9               	decfsz	??_menu+1,f
  4363  03AB  2BA8               	goto	u273_27
  4364  03AC  2BAD               	nop2
  4365  03AD                     i1l2030:
  4366                           
  4367                           ;pro2.c: 701:         printf("\r(g) Desenrrollar. \r");
  4368  03AD  3028               	movlw	low (STR_10| (0+32768))
  4369  03AE  00F1               	movwf	printf@f
  4370  03AF  3086               	movlw	high (STR_10| (0+32768))
  4371  03B0  00F2               	movwf	printf@f+1
  4372  03B1  120A  118A  27AF  120A  118A  	fcall	_printf
  4373  03B6                     i1l2032:
  4374                           
  4375                           ;pro2.c: 702:         _delay((unsigned long)((50)*(8000000/4000.0)));
  4376  03B6  3082               	movlw	130
  4377  03B7  00F9               	movwf	??_menu+1
  4378  03B8  30DD               	movlw	221
  4379  03B9  00F8               	movwf	??_menu
  4380  03BA                     u274_27:
  4381  03BA  0BF8               	decfsz	??_menu,f
  4382  03BB  2BBA               	goto	u274_27
  4383  03BC  0BF9               	decfsz	??_menu+1,f
  4384  03BD  2BBA               	goto	u274_27
  4385  03BE  2BBF               	nop2
  4386                           
  4387                           ;pro2.c: 703:         printf("(h) Enrrollar. \r");
  4388  03BF  3052               	movlw	low (STR_11| (0+32768))
  4389  03C0  00F1               	movwf	printf@f
  4390  03C1  3086               	movlw	high (STR_11| (0+32768))
  4391  03C2  00F2               	movwf	printf@f+1
  4392  03C3  120A  118A  27AF  120A  118A  	fcall	_printf
  4393  03C8                     i1l348:	
  4394                           ;pro2.c: 704:         _delay((unsigned long)((50)*(8000000/4000.0)));
  4395                           
  4396  03C8  1283               	bcf	3,5	;RP0=0, select bank0
  4397  03C9  1303               	bcf	3,6	;RP1=0, select bank0
  4398  03CA  1E8C               	btfss	12,5	;volatile
  4399  03CB  2BCD               	goto	u165_21
  4400  03CC  2BCE               	goto	u165_20
  4401  03CD                     u165_21:
  4402  03CD  2BC8               	goto	i1l348
  4403  03CE                     u165_20:
  4404  03CE                     i1l2034:
  4405                           
  4406                           ;pro2.c: 706:         while(RCIF == 0);
  4407  03CE  3065               	movlw	101
  4408  03CF  061A               	xorwf	26,w	;volatile
  4409  03D0  1D03               	btfss	3,2
  4410  03D1  2BD3               	goto	u166_21
  4411  03D2  2BD4               	goto	u166_20
  4412  03D3                     u166_21:
  4413  03D3  2C17               	goto	i1l2050
  4414  03D4                     u166_20:
  4415  03D4                     i1l2036:
  4416                           
  4417                           ;pro2.c: 707: ;pro2.c: 708:         if (RCREG == 'g')
  4418  03D4  3082               	movlw	130
  4419  03D5  00F9               	movwf	??_menu+1
  4420  03D6  30DD               	movlw	221
  4421  03D7  00F8               	movwf	??_menu
  4422  03D8                     u275_27:
  4423  03D8  0BF8               	decfsz	??_menu,f
  4424  03D9  2BD8               	goto	u275_27
  4425  03DA  0BF9               	decfsz	??_menu+1,f
  4426  03DB  2BD8               	goto	u275_27
  4427  03DC  2BDD               	nop2
  4428  03DD                     i1l2038:
  4429                           
  4430                           ;pro2.c: 709:         {
  4431  03DD  3022               	movlw	low (STR_12| (0+32768))
  4432  03DE  00F1               	movwf	printf@f
  4433  03DF  3085               	movlw	high (STR_12| (0+32768))
  4434  03E0  00F2               	movwf	printf@f+1
  4435  03E1  120A  118A  27AF  120A  118A  	fcall	_printf
  4436  03E6                     i1l2040:
  4437                           
  4438                           ;pro2.c: 710:             CCPR1L = 0;
  4439  03E6  3082               	movlw	130
  4440  03E7  00F9               	movwf	??_menu+1
  4441  03E8  30DD               	movlw	221
  4442  03E9  00F8               	movwf	??_menu
  4443  03EA                     u276_27:
  4444  03EA  0BF8               	decfsz	??_menu,f
  4445  03EB  2BEA               	goto	u276_27
  4446  03EC  0BF9               	decfsz	??_menu+1,f
  4447  03ED  2BEA               	goto	u276_27
  4448  03EE  2BEF               	nop2
  4449                           
  4450                           ;pro2.c: 711:             CCPR2L = ADRESH;
  4451  03EF  30BB               	movlw	low (STR_13| (0+32768))
  4452  03F0  00F1               	movwf	printf@f
  4453  03F1  3085               	movlw	high (STR_13| (0+32768))
  4454  03F2  00F2               	movwf	printf@f+1
  4455  03F3  120A  118A  27AF  120A  118A  	fcall	_printf
  4456  03F8                     i1l352:	
  4457                           ;pro2.c: 712:         }
  4458                           
  4459  03F8  1283               	bcf	3,5	;RP0=0, select bank0
  4460  03F9  1303               	bcf	3,6	;RP1=0, select bank0
  4461  03FA  1E8C               	btfss	12,5	;volatile
  4462  03FB  2BFD               	goto	u167_21
  4463  03FC  2BFE               	goto	u167_20
  4464  03FD                     u167_21:
  4465  03FD  2BF8               	goto	i1l352
  4466  03FE                     u167_20:
  4467  03FE                     i1l2042:
  4468                           
  4469                           ;pro2.c: 713:         else if (RCREG == 'h')
  4470  03FE  3036               	movlw	54
  4471  03FF  061A               	xorwf	26,w	;volatile
  4472  0400  1D03               	btfss	3,2
  4473  0401  2C03               	goto	u168_21
  4474  0402  2C04               	goto	u168_20
  4475  0403                     u168_21:
  4476  0403  2C09               	goto	i1l2046
  4477  0404                     u168_20:
  4478  0404                     i1l2044:
  4479                           
  4480                           ;pro2.c: 714:         {;pro2.c: 715:             CCPR1L = ADRESH;
  4481  0404  120A  158A  2521  120A  118A  	fcall	_servo3
  4482  0409                     i1l2046:
  4483                           
  4484                           ;pro2.c: 717:         }
  4485  0409  3037               	movlw	55
  4486  040A  1283               	bcf	3,5	;RP0=0, select bank0
  4487  040B  1303               	bcf	3,6	;RP1=0, select bank0
  4488  040C  061A               	xorwf	26,w	;volatile
  4489  040D  1D03               	btfss	3,2
  4490  040E  2C10               	goto	u169_21
  4491  040F  2C11               	goto	u169_20
  4492  0410                     u169_21:
  4493  0410  2C60               	goto	i1l2066
  4494  0411                     u169_20:
  4495  0411                     i1l2048:
  4496                           
  4497                           ;pro2.c: 718:         else if (RCREG == 'i');pro2.c: 719:         {
  4498  0411  120A  158A  253A  120A  118A  	fcall	_servo3_5
  4499  0416  2C60               	goto	i1l2066
  4500  0417                     i1l2050:
  4501  0417  3066               	movlw	102
  4502  0418  061A               	xorwf	26,w	;volatile
  4503  0419  1D03               	btfss	3,2
  4504  041A  2C1C               	goto	u170_21
  4505  041B  2C1D               	goto	u170_20
  4506  041C                     u170_21:
  4507  041C  2C60               	goto	i1l2066
  4508  041D                     u170_20:
  4509  041D                     i1l2052:
  4510                           
  4511                           ;pro2.c: 723:     };pro2.c: 724:     if (RCREG == '4'){
  4512  041D  3082               	movlw	130
  4513  041E  00F9               	movwf	??_menu+1
  4514  041F  30DD               	movlw	221
  4515  0420  00F8               	movwf	??_menu
  4516  0421                     u277_27:
  4517  0421  0BF8               	decfsz	??_menu,f
  4518  0422  2C21               	goto	u277_27
  4519  0423  0BF9               	decfsz	??_menu+1,f
  4520  0424  2C21               	goto	u277_27
  4521  0425  2C26               	nop2
  4522  0426                     i1l2054:
  4523                           
  4524                           ;pro2.c: 725:         uart = 0;
  4525  0426  3041               	movlw	low (STR_14| (0+32768))
  4526  0427  00F1               	movwf	printf@f
  4527  0428  3085               	movlw	high (STR_14| (0+32768))
  4528  0429  00F2               	movwf	printf@f+1
  4529  042A  120A  118A  27AF  120A  118A  	fcall	_printf
  4530  042F                     i1l2056:
  4531                           
  4532                           ;pro2.c: 726:         printf("\rHa salido del UART \r");
  4533  042F  3082               	movlw	130
  4534  0430  00F9               	movwf	??_menu+1
  4535  0431  30DD               	movlw	221
  4536  0432  00F8               	movwf	??_menu
  4537  0433                     u278_27:
  4538  0433  0BF8               	decfsz	??_menu,f
  4539  0434  2C33               	goto	u278_27
  4540  0435  0BF9               	decfsz	??_menu+1,f
  4541  0436  2C33               	goto	u278_27
  4542  0437  2C38               	nop2
  4543                           
  4544                           ;pro2.c: 727:         _delay((unsigned long)((50)*(8000000/4000.0)));
  4545  0438  30D8               	movlw	low (STR_15| (0+32768))
  4546  0439  00F1               	movwf	printf@f
  4547  043A  3085               	movlw	high (STR_15| (0+32768))
  4548  043B  00F2               	movwf	printf@f+1
  4549  043C  120A  118A  27AF  120A  118A  	fcall	_printf
  4550  0441                     i1l359:	
  4551                           ;pro2.c: 728:     }
  4552                           
  4553  0441  1283               	bcf	3,5	;RP0=0, select bank0
  4554  0442  1303               	bcf	3,6	;RP1=0, select bank0
  4555  0443  1E8C               	btfss	12,5	;volatile
  4556  0444  2C46               	goto	u171_21
  4557  0445  2C47               	goto	u171_20
  4558  0446                     u171_21:
  4559  0446  2C41               	goto	i1l359
  4560  0447                     u171_20:
  4561  0447                     i1l2058:
  4562                           
  4563                           ;pro2.c: 729: }
  4564  0447  3038               	movlw	56
  4565  0448  061A               	xorwf	26,w	;volatile
  4566  0449  1D03               	btfss	3,2
  4567  044A  2C4C               	goto	u172_21
  4568  044B  2C4D               	goto	u172_20
  4569  044C                     u172_21:
  4570  044C  2C52               	goto	i1l2062
  4571  044D                     u172_20:
  4572  044D                     i1l2060:
  4573                           
  4574                           ;pro2.c: 730: void putch(char info){;pro2.c: 731: 
  4575  044D  120A  158A  2553  120A  118A  	fcall	_servo4
  4576  0452                     i1l2062:
  4577                           
  4578                           ;pro2.c: 733:     TXREG = info;
  4579  0452  3039               	movlw	57
  4580  0453  1283               	bcf	3,5	;RP0=0, select bank0
  4581  0454  1303               	bcf	3,6	;RP1=0, select bank0
  4582  0455  061A               	xorwf	26,w	;volatile
  4583  0456  1D03               	btfss	3,2
  4584  0457  2C59               	goto	u173_21
  4585  0458  2C5A               	goto	u173_20
  4586  0459                     u173_21:
  4587  0459  2C60               	goto	i1l357
  4588  045A                     u173_20:
  4589  045A                     i1l2064:
  4590                           
  4591                           ;pro2.c: 734: ;pro2.c: 735: }
  4592  045A  120A  158A  256C  120A  118A  	fcall	_servo4_5
  4593  045F  2C60               	goto	i1l2066
  4594  0460                     i1l357:
  4595  0460                     i1l2066:
  4596  0460  3033               	movlw	51
  4597  0461  1283               	bcf	3,5	;RP0=0, select bank0
  4598  0462  1303               	bcf	3,6	;RP1=0, select bank0
  4599  0463  061A               	xorwf	26,w	;volatile
  4600  0464  1D03               	btfss	3,2
  4601  0465  2C67               	goto	u174_21
  4602  0466  2C68               	goto	u174_20
  4603  0467                     u174_21:
  4604  0467  2CC1               	goto	i1l2094
  4605  0468                     u174_20:
  4606  0468                     i1l2068:
  4607  0468  3082               	movlw	130
  4608  0469  00F9               	movwf	??_menu+1
  4609  046A  30DD               	movlw	221
  4610  046B  00F8               	movwf	??_menu
  4611  046C                     u279_27:
  4612  046C  0BF8               	decfsz	??_menu,f
  4613  046D  2C6C               	goto	u279_27
  4614  046E  0BF9               	decfsz	??_menu+1,f
  4615  046F  2C6C               	goto	u279_27
  4616  0470  2C71               	nop2
  4617  0471                     i1l2070:
  4618  0471  303D               	movlw	low (STR_16| (0+32768))
  4619  0472  00F1               	movwf	printf@f
  4620  0473  3086               	movlw	high (STR_16| (0+32768))
  4621  0474  00F2               	movwf	printf@f+1
  4622  0475  120A  118A  27AF  120A  118A  	fcall	_printf
  4623  047A                     i1l2072:
  4624  047A  3082               	movlw	130
  4625  047B  00F9               	movwf	??_menu+1
  4626  047C  30DD               	movlw	221
  4627  047D  00F8               	movwf	??_menu
  4628  047E                     u280_27:
  4629  047E  0BF8               	decfsz	??_menu,f
  4630  047F  2C7E               	goto	u280_27
  4631  0480  0BF9               	decfsz	??_menu+1,f
  4632  0481  2C7E               	goto	u280_27
  4633  0482  2C83               	nop2
  4634  0483  30B1               	movlw	low (STR_17| (0+32768))
  4635  0484  00F1               	movwf	printf@f
  4636  0485  3086               	movlw	high (STR_17| (0+32768))
  4637  0486  00F2               	movwf	printf@f+1
  4638  0487  120A  118A  27AF  120A  118A  	fcall	_printf
  4639  048C                     i1l2074:
  4640  048C  3082               	movlw	130
  4641  048D  00F9               	movwf	??_menu+1
  4642  048E  30DD               	movlw	221
  4643  048F  00F8               	movwf	??_menu
  4644  0490                     u281_27:
  4645  0490  0BF8               	decfsz	??_menu,f
  4646  0491  2C90               	goto	u281_27
  4647  0492  0BF9               	decfsz	??_menu+1,f
  4648  0493  2C90               	goto	u281_27
  4649  0494  2C95               	nop2
  4650  0495                     i1l2076:
  4651  0495  30C2               	movlw	low (STR_18| (0+32768))
  4652  0496  00F1               	movwf	printf@f
  4653  0497  3086               	movlw	high (STR_18| (0+32768))
  4654  0498  00F2               	movwf	printf@f+1
  4655  0499  120A  118A  27AF  120A  118A  	fcall	_printf
  4656  049E                     i1l365:
  4657  049E  1283               	bcf	3,5	;RP0=0, select bank0
  4658  049F  1303               	bcf	3,6	;RP1=0, select bank0
  4659  04A0  1E8C               	btfss	12,5	;volatile
  4660  04A1  2CA3               	goto	u175_21
  4661  04A2  2CA4               	goto	u175_20
  4662  04A3                     u175_21:
  4663  04A3  2C9E               	goto	i1l365
  4664  04A4                     u175_20:
  4665  04A4                     i1l2078:
  4666  04A4  3067               	movlw	103
  4667  04A5  061A               	xorwf	26,w	;volatile
  4668  04A6  1D03               	btfss	3,2
  4669  04A7  2CA9               	goto	u176_21
  4670  04A8  2CAA               	goto	u176_20
  4671  04A9                     u176_21:
  4672  04A9  2CAE               	goto	i1l2084
  4673  04AA                     u176_20:
  4674  04AA                     i1l2080:
  4675  04AA  0195               	clrf	21	;volatile
  4676  04AB                     i1l2082:
  4677  04AB  081E               	movf	30,w	;volatile
  4678  04AC  009B               	movwf	27	;volatile
  4679  04AD  2CC1               	goto	i1l2094
  4680  04AE                     i1l2084:
  4681  04AE  3068               	movlw	104
  4682  04AF  061A               	xorwf	26,w	;volatile
  4683  04B0  1D03               	btfss	3,2
  4684  04B1  2CB3               	goto	u177_21
  4685  04B2  2CB4               	goto	u177_20
  4686  04B3                     u177_21:
  4687  04B3  2CB8               	goto	i1l2090
  4688  04B4                     u177_20:
  4689  04B4                     i1l2086:
  4690  04B4  081E               	movf	30,w	;volatile
  4691  04B5  0095               	movwf	21	;volatile
  4692  04B6                     i1l2088:
  4693  04B6  019B               	clrf	27	;volatile
  4694  04B7  2CC1               	goto	i1l2094
  4695  04B8                     i1l2090:
  4696  04B8  3069               	movlw	105
  4697  04B9  061A               	xorwf	26,w	;volatile
  4698  04BA  1D03               	btfss	3,2
  4699  04BB  2CBD               	goto	u178_21
  4700  04BC  2CBE               	goto	u178_20
  4701  04BD                     u178_21:
  4702  04BD  2CC1               	goto	i1l369
  4703  04BE                     u178_20:
  4704  04BE                     i1l2092:
  4705  04BE  0195               	clrf	21	;volatile
  4706  04BF  019B               	clrf	27	;volatile
  4707  04C0  2CC1               	goto	i1l2094
  4708  04C1                     i1l369:
  4709  04C1                     i1l2094:
  4710  04C1  3034               	movlw	52
  4711  04C2  061A               	xorwf	26,w	;volatile
  4712  04C3  1D03               	btfss	3,2
  4713  04C4  2CC6               	goto	u179_21
  4714  04C5  2CC7               	goto	u179_20
  4715  04C6                     u179_21:
  4716  04C6  2CDB               	goto	i1l374
  4717  04C7                     u179_20:
  4718  04C7                     i1l2096:
  4719  04C7  01A0               	clrf	_uart
  4720  04C8  01A1               	clrf	_uart+1
  4721  04C9                     i1l2098:
  4722  04C9  3012               	movlw	low (STR_19| (0+32768))
  4723  04CA  00F1               	movwf	printf@f
  4724  04CB  3086               	movlw	high (STR_19| (0+32768))
  4725  04CC  00F2               	movwf	printf@f+1
  4726  04CD  120A  118A  27AF  120A  118A  	fcall	_printf
  4727  04D2                     i1l2100:
  4728  04D2  3082               	movlw	130
  4729  04D3  00F9               	movwf	??_menu+1
  4730  04D4  30DD               	movlw	221
  4731  04D5  00F8               	movwf	??_menu
  4732  04D6                     u282_27:
  4733  04D6  0BF8               	decfsz	??_menu,f
  4734  04D7  2CD6               	goto	u282_27
  4735  04D8  0BF9               	decfsz	??_menu+1,f
  4736  04D9  2CD6               	goto	u282_27
  4737  04DA  2CDB               	nop2
  4738  04DB                     i1l374:
  4739  04DB  0008               	return
  4740  04DC                     __end_of_menu:
  4741                           
  4742                           	psect	text17
  4743  0D6C                     __ptext17:	
  4744 ;; *************** function _servo4_5 *****************
  4745 ;; Defined at:
  4746 ;;		line 516 in file "pro2.c"
  4747 ;; Parameters:    Size  Location     Type
  4748 ;;		None
  4749 ;; Auto vars:     Size  Location     Type
  4750 ;;		None
  4751 ;; Return value:  Size  Location     Type
  4752 ;;                  1    wreg      void 
  4753 ;; Registers used:
  4754 ;;		wreg
  4755 ;; Tracked objects:
  4756 ;;		On entry : 0/0
  4757 ;;		On exit  : 0/0
  4758 ;;		Unchanged: 0/0
  4759 ;; Data sizes:     COMMON   BANK0   BANK1   BANK3   BANK2
  4760 ;;      Params:         0       0       0       0       0
  4761 ;;      Locals:         0       0       0       0       0
  4762 ;;      Temps:          2       0       0       0       0
  4763 ;;      Totals:         2       0       0       0       0
  4764 ;;Total ram usage:        2 bytes
  4765 ;; Hardware stack levels used:    1
  4766 ;; This function calls:
  4767 ;;		Nothing
  4768 ;; This function is called by:
  4769 ;;		_isr
  4770 ;;		_nuevo_bit_banging
  4771 ;;		_menu
  4772 ;; This function uses a non-reentrant model
  4773 ;;
  4774                           
  4775                           
  4776                           ;psect for function _servo4_5
  4777  0D6C                     _servo4_5:
  4778  0D6C                     i1l1832:	
  4779                           ;incstack = 0
  4780                           ; Regs used in _servo4_5: [wreg]
  4781                           
  4782                           
  4783                           ;pro2.c: 518:     {
  4784  0D6C  1283               	bcf	3,5	;RP0=0, select bank0
  4785  0D6D  1303               	bcf	3,6	;RP1=0, select bank0
  4786  0D6E  1586               	bsf	6,3	;volatile
  4787  0D6F                     i1l1834:
  4788                           
  4789                           ;pro2.c: 519:      servo1_2();
  4790  0D6F  3006               	movlw	6
  4791  0D70  00F1               	movwf	??_servo4_5+1
  4792  0D71  3030               	movlw	48
  4793  0D72  00F0               	movwf	??_servo4_5
  4794  0D73                     u283_27:
  4795  0D73  0BF0               	decfsz	??_servo4_5,f
  4796  0D74  2D73               	goto	u283_27
  4797  0D75  0BF1               	decfsz	??_servo4_5+1,f
  4798  0D76  2D73               	goto	u283_27
  4799  0D77  0000               	nop
  4800  0D78                     i1l1836:
  4801                           
  4802                           ;pro2.c: 520:     }
  4803  0D78  1283               	bcf	3,5	;RP0=0, select bank0
  4804  0D79  1303               	bcf	3,6	;RP1=0, select bank0
  4805  0D7A  1186               	bcf	6,3	;volatile
  4806                           
  4807                           ;pro2.c: 521:     if((M4<=152)&&(M4>=102))
  4808  0D7B  302F               	movlw	47
  4809  0D7C  00F1               	movwf	??_servo4_5+1
  4810  0D7D  30BF               	movlw	191
  4811  0D7E  00F0               	movwf	??_servo4_5
  4812  0D7F                     u284_27:
  4813  0D7F  0BF0               	decfsz	??_servo4_5,f
  4814  0D80  2D7F               	goto	u284_27
  4815  0D81  0BF1               	decfsz	??_servo4_5+1,f
  4816  0D82  2D7F               	goto	u284_27
  4817  0D83  2D84               	nop2
  4818  0D84                     i1l295:
  4819  0D84  0008               	return
  4820  0D85                     __end_of_servo4_5:
  4821                           
  4822                           	psect	text18
  4823  0D53                     __ptext18:	
  4824 ;; *************** function _servo4 *****************
  4825 ;; Defined at:
  4826 ;;		line 488 in file "pro2.c"
  4827 ;; Parameters:    Size  Location     Type
  4828 ;;		None
  4829 ;; Auto vars:     Size  Location     Type
  4830 ;;		None
  4831 ;; Return value:  Size  Location     Type
  4832 ;;                  1    wreg      void 
  4833 ;; Registers used:
  4834 ;;		wreg
  4835 ;; Tracked objects:
  4836 ;;		On entry : 0/0
  4837 ;;		On exit  : 0/0
  4838 ;;		Unchanged: 0/0
  4839 ;; Data sizes:     COMMON   BANK0   BANK1   BANK3   BANK2
  4840 ;;      Params:         0       0       0       0       0
  4841 ;;      Locals:         0       0       0       0       0
  4842 ;;      Temps:          2       0       0       0       0
  4843 ;;      Totals:         2       0       0       0       0
  4844 ;;Total ram usage:        2 bytes
  4845 ;; Hardware stack levels used:    1
  4846 ;; This function calls:
  4847 ;;		Nothing
  4848 ;; This function is called by:
  4849 ;;		_isr
  4850 ;;		_nuevo_bit_banging
  4851 ;;		_menu
  4852 ;; This function uses a non-reentrant model
  4853 ;;
  4854                           
  4855                           
  4856                           ;psect for function _servo4
  4857  0D53                     _servo4:
  4858  0D53                     i1l1808:	
  4859                           ;incstack = 0
  4860                           ; Regs used in _servo4: [wreg]
  4861                           
  4862                           
  4863                           ;pro2.c: 490: }
  4864  0D53  1283               	bcf	3,5	;RP0=0, select bank0
  4865  0D54  1303               	bcf	3,6	;RP1=0, select bank0
  4866  0D55  1586               	bsf	6,3	;volatile
  4867  0D56                     i1l1810:
  4868                           
  4869                           ;pro2.c: 491: void escribir_eeprom(char data, char direccion)
  4870  0D56  30C7               	movlw	199
  4871  0D57  00F0               	movwf	??_servo4
  4872  0D58                     u285_27:
  4873  0D58  2D59               	nop2
  4874  0D59  2D5A               	nop2
  4875  0D5A  0BF0               	decfsz	??_servo4,f
  4876  0D5B  2D58               	goto	u285_27
  4877  0D5C  2D5D               	nop2
  4878  0D5D  2D5E               	nop2
  4879  0D5E  2D5F               	nop2
  4880  0D5F                     i1l1812:
  4881                           
  4882                           ;pro2.c: 492: {
  4883  0D5F  1283               	bcf	3,5	;RP0=0, select bank0
  4884  0D60  1303               	bcf	3,6	;RP1=0, select bank0
  4885  0D61  1186               	bcf	6,3	;volatile
  4886                           
  4887                           ;pro2.c: 493:     EEADR = direccion;
  4888  0D62  3033               	movlw	51
  4889  0D63  00F1               	movwf	??_servo4+1
  4890  0D64  301F               	movlw	31
  4891  0D65  00F0               	movwf	??_servo4
  4892  0D66                     u286_27:
  4893  0D66  0BF0               	decfsz	??_servo4,f
  4894  0D67  2D66               	goto	u286_27
  4895  0D68  0BF1               	decfsz	??_servo4+1,f
  4896  0D69  2D66               	goto	u286_27
  4897  0D6A  2D6B               	nop2
  4898  0D6B                     i1l283:
  4899  0D6B  0008               	return
  4900  0D6C                     __end_of_servo4:
  4901                           
  4902                           	psect	text19
  4903  0D3A                     __ptext19:	
  4904 ;; *************** function _servo3_5 *****************
  4905 ;; Defined at:
  4906 ;;		line 480 in file "pro2.c"
  4907 ;; Parameters:    Size  Location     Type
  4908 ;;		None
  4909 ;; Auto vars:     Size  Location     Type
  4910 ;;		None
  4911 ;; Return value:  Size  Location     Type
  4912 ;;                  1    wreg      void 
  4913 ;; Registers used:
  4914 ;;		wreg
  4915 ;; Tracked objects:
  4916 ;;		On entry : 0/0
  4917 ;;		On exit  : 0/0
  4918 ;;		Unchanged: 0/0
  4919 ;; Data sizes:     COMMON   BANK0   BANK1   BANK3   BANK2
  4920 ;;      Params:         0       0       0       0       0
  4921 ;;      Locals:         0       0       0       0       0
  4922 ;;      Temps:          2       0       0       0       0
  4923 ;;      Totals:         2       0       0       0       0
  4924 ;;Total ram usage:        2 bytes
  4925 ;; Hardware stack levels used:    1
  4926 ;; This function calls:
  4927 ;;		Nothing
  4928 ;; This function is called by:
  4929 ;;		_isr
  4930 ;;		_nuevo_bit_banging
  4931 ;;		_menu
  4932 ;; This function uses a non-reentrant model
  4933 ;;
  4934                           
  4935                           
  4936                           ;psect for function _servo3_5
  4937  0D3A                     _servo3_5:
  4938  0D3A                     i1l1802:	
  4939                           ;incstack = 0
  4940                           ; Regs used in _servo3_5: [wreg]
  4941                           
  4942                           
  4943                           ;pro2.c: 482: }
  4944  0D3A  1283               	bcf	3,5	;RP0=0, select bank0
  4945  0D3B  1303               	bcf	3,6	;RP1=0, select bank0
  4946  0D3C  1506               	bsf	6,2	;volatile
  4947  0D3D                     i1l1804:
  4948                           
  4949                           ;pro2.c: 483: char leer_eeprom(char direccion)
  4950  0D3D  3006               	movlw	6
  4951  0D3E  00F1               	movwf	??_servo3_5+1
  4952  0D3F  3030               	movlw	48
  4953  0D40  00F0               	movwf	??_servo3_5
  4954  0D41                     u287_27:
  4955  0D41  0BF0               	decfsz	??_servo3_5,f
  4956  0D42  2D41               	goto	u287_27
  4957  0D43  0BF1               	decfsz	??_servo3_5+1,f
  4958  0D44  2D41               	goto	u287_27
  4959  0D45  0000               	nop
  4960  0D46                     i1l1806:
  4961                           
  4962                           ;pro2.c: 484: {
  4963  0D46  1283               	bcf	3,5	;RP0=0, select bank0
  4964  0D47  1303               	bcf	3,6	;RP1=0, select bank0
  4965  0D48  1106               	bcf	6,2	;volatile
  4966                           
  4967                           ;pro2.c: 485:     EEADR = direccion;
  4968  0D49  302F               	movlw	47
  4969  0D4A  00F1               	movwf	??_servo3_5+1
  4970  0D4B  30BF               	movlw	191
  4971  0D4C  00F0               	movwf	??_servo3_5
  4972  0D4D                     u288_27:
  4973  0D4D  0BF0               	decfsz	??_servo3_5,f
  4974  0D4E  2D4D               	goto	u288_27
  4975  0D4F  0BF1               	decfsz	??_servo3_5+1,f
  4976  0D50  2D4D               	goto	u288_27
  4977  0D51  2D52               	nop2
  4978  0D52                     i1l280:
  4979  0D52  0008               	return
  4980  0D53                     __end_of_servo3_5:
  4981                           
  4982                           	psect	text20
  4983  0D21                     __ptext20:	
  4984 ;; *************** function _servo3 *****************
  4985 ;; Defined at:
  4986 ;;		line 452 in file "pro2.c"
  4987 ;; Parameters:    Size  Location     Type
  4988 ;;		None
  4989 ;; Auto vars:     Size  Location     Type
  4990 ;;		None
  4991 ;; Return value:  Size  Location     Type
  4992 ;;                  1    wreg      void 
  4993 ;; Registers used:
  4994 ;;		wreg
  4995 ;; Tracked objects:
  4996 ;;		On entry : 0/0
  4997 ;;		On exit  : 0/0
  4998 ;;		Unchanged: 0/0
  4999 ;; Data sizes:     COMMON   BANK0   BANK1   BANK3   BANK2
  5000 ;;      Params:         0       0       0       0       0
  5001 ;;      Locals:         0       0       0       0       0
  5002 ;;      Temps:          2       0       0       0       0
  5003 ;;      Totals:         2       0       0       0       0
  5004 ;;Total ram usage:        2 bytes
  5005 ;; Hardware stack levels used:    1
  5006 ;; This function calls:
  5007 ;;		Nothing
  5008 ;; This function is called by:
  5009 ;;		_isr
  5010 ;;		_nuevo_bit_banging
  5011 ;;		_menu
  5012 ;; This function uses a non-reentrant model
  5013 ;;
  5014                           
  5015                           
  5016                           ;psect for function _servo3
  5017  0D21                     _servo3:
  5018  0D21                     i1l1778:	
  5019                           ;incstack = 0
  5020                           ; Regs used in _servo3: [wreg]
  5021                           
  5022                           
  5023                           ;pro2.c: 454: }
  5024  0D21  1283               	bcf	3,5	;RP0=0, select bank0
  5025  0D22  1303               	bcf	3,6	;RP1=0, select bank0
  5026  0D23  1506               	bsf	6,2	;volatile
  5027  0D24                     i1l1780:
  5028                           
  5029                           ;pro2.c: 455: void servo4_2(void)
  5030  0D24  30C7               	movlw	199
  5031  0D25  00F0               	movwf	??_servo3
  5032  0D26                     u289_27:
  5033  0D26  2D27               	nop2
  5034  0D27  2D28               	nop2
  5035  0D28  0BF0               	decfsz	??_servo3,f
  5036  0D29  2D26               	goto	u289_27
  5037  0D2A  2D2B               	nop2
  5038  0D2B  2D2C               	nop2
  5039  0D2C  2D2D               	nop2
  5040  0D2D                     i1l1782:
  5041                           
  5042                           ;pro2.c: 456: {
  5043  0D2D  1283               	bcf	3,5	;RP0=0, select bank0
  5044  0D2E  1303               	bcf	3,6	;RP1=0, select bank0
  5045  0D2F  1106               	bcf	6,2	;volatile
  5046                           
  5047                           ;pro2.c: 457:             PORTBbits.RB3 = 1;
  5048  0D30  3033               	movlw	51
  5049  0D31  00F1               	movwf	??_servo3+1
  5050  0D32  301F               	movlw	31
  5051  0D33  00F0               	movwf	??_servo3
  5052  0D34                     u290_27:
  5053  0D34  0BF0               	decfsz	??_servo3,f
  5054  0D35  2D34               	goto	u290_27
  5055  0D36  0BF1               	decfsz	??_servo3+1,f
  5056  0D37  2D34               	goto	u290_27
  5057  0D38  2D39               	nop2
  5058  0D39                     i1l268:
  5059  0D39  0008               	return
  5060  0D3A                     __end_of_servo3:
  5061                           
  5062                           	psect	text21
  5063  0D08                     __ptext21:	
  5064 ;; *************** function _servo2_5 *****************
  5065 ;; Defined at:
  5066 ;;		line 444 in file "pro2.c"
  5067 ;; Parameters:    Size  Location     Type
  5068 ;;		None
  5069 ;; Auto vars:     Size  Location     Type
  5070 ;;		None
  5071 ;; Return value:  Size  Location     Type
  5072 ;;                  1    wreg      void 
  5073 ;; Registers used:
  5074 ;;		wreg
  5075 ;; Tracked objects:
  5076 ;;		On entry : 0/0
  5077 ;;		On exit  : 0/0
  5078 ;;		Unchanged: 0/0
  5079 ;; Data sizes:     COMMON   BANK0   BANK1   BANK3   BANK2
  5080 ;;      Params:         0       0       0       0       0
  5081 ;;      Locals:         0       0       0       0       0
  5082 ;;      Temps:          2       0       0       0       0
  5083 ;;      Totals:         2       0       0       0       0
  5084 ;;Total ram usage:        2 bytes
  5085 ;; Hardware stack levels used:    1
  5086 ;; This function calls:
  5087 ;;		Nothing
  5088 ;; This function is called by:
  5089 ;;		_isr
  5090 ;;		_nuevo_bit_banging
  5091 ;;		_menu
  5092 ;; This function uses a non-reentrant model
  5093 ;;
  5094                           
  5095                           
  5096                           ;psect for function _servo2_5
  5097  0D08                     _servo2_5:
  5098  0D08                     i1l1772:	
  5099                           ;incstack = 0
  5100                           ; Regs used in _servo2_5: [wreg]
  5101                           
  5102                           
  5103                           ;pro2.c: 446: }
  5104  0D08  1283               	bcf	3,5	;RP0=0, select bank0
  5105  0D09  1303               	bcf	3,6	;RP1=0, select bank0
  5106  0D0A  1486               	bsf	6,1	;volatile
  5107  0D0B                     i1l1774:
  5108                           
  5109                           ;pro2.c: 447: 
  5110  0D0B  3006               	movlw	6
  5111  0D0C  00F1               	movwf	??_servo2_5+1
  5112  0D0D  3030               	movlw	48
  5113  0D0E  00F0               	movwf	??_servo2_5
  5114  0D0F                     u291_27:
  5115  0D0F  0BF0               	decfsz	??_servo2_5,f
  5116  0D10  2D0F               	goto	u291_27
  5117  0D11  0BF1               	decfsz	??_servo2_5+1,f
  5118  0D12  2D0F               	goto	u291_27
  5119  0D13  0000               	nop
  5120  0D14                     i1l1776:
  5121                           
  5122                           ;pro2.c: 448: void servo4(void)
  5123  0D14  1283               	bcf	3,5	;RP0=0, select bank0
  5124  0D15  1303               	bcf	3,6	;RP1=0, select bank0
  5125  0D16  1086               	bcf	6,1	;volatile
  5126                           
  5127                           ;pro2.c: 449: {
  5128  0D17  302F               	movlw	47
  5129  0D18  00F1               	movwf	??_servo2_5+1
  5130  0D19  30BF               	movlw	191
  5131  0D1A  00F0               	movwf	??_servo2_5
  5132  0D1B                     u292_27:
  5133  0D1B  0BF0               	decfsz	??_servo2_5,f
  5134  0D1C  2D1B               	goto	u292_27
  5135  0D1D  0BF1               	decfsz	??_servo2_5+1,f
  5136  0D1E  2D1B               	goto	u292_27
  5137  0D1F  2D20               	nop2
  5138  0D20                     i1l265:
  5139  0D20  0008               	return
  5140  0D21                     __end_of_servo2_5:
  5141                           
  5142                           	psect	text22
  5143  0CEF                     __ptext22:	
  5144 ;; *************** function _servo2 *****************
  5145 ;; Defined at:
  5146 ;;		line 416 in file "pro2.c"
  5147 ;; Parameters:    Size  Location     Type
  5148 ;;		None
  5149 ;; Auto vars:     Size  Location     Type
  5150 ;;		None
  5151 ;; Return value:  Size  Location     Type
  5152 ;;                  1    wreg      void 
  5153 ;; Registers used:
  5154 ;;		wreg
  5155 ;; Tracked objects:
  5156 ;;		On entry : 0/0
  5157 ;;		On exit  : 0/0
  5158 ;;		Unchanged: 0/0
  5159 ;; Data sizes:     COMMON   BANK0   BANK1   BANK3   BANK2
  5160 ;;      Params:         0       0       0       0       0
  5161 ;;      Locals:         0       0       0       0       0
  5162 ;;      Temps:          2       0       0       0       0
  5163 ;;      Totals:         2       0       0       0       0
  5164 ;;Total ram usage:        2 bytes
  5165 ;; Hardware stack levels used:    1
  5166 ;; This function calls:
  5167 ;;		Nothing
  5168 ;; This function is called by:
  5169 ;;		_isr
  5170 ;;		_nuevo_bit_banging
  5171 ;;		_menu
  5172 ;; This function uses a non-reentrant model
  5173 ;;
  5174                           
  5175                           
  5176                           ;psect for function _servo2
  5177  0CEF                     _servo2:
  5178  0CEF                     i1l1748:	
  5179                           ;incstack = 0
  5180                           ; Regs used in _servo2: [wreg]
  5181                           
  5182                           
  5183                           ;pro2.c: 418: }
  5184  0CEF  1283               	bcf	3,5	;RP0=0, select bank0
  5185  0CF0  1303               	bcf	3,6	;RP1=0, select bank0
  5186  0CF1  1486               	bsf	6,1	;volatile
  5187  0CF2                     i1l1750:
  5188                           
  5189                           ;pro2.c: 419: void servo3_2(void)
  5190  0CF2  30C7               	movlw	199
  5191  0CF3  00F0               	movwf	??_servo2
  5192  0CF4                     u293_27:
  5193  0CF4  2CF5               	nop2
  5194  0CF5  2CF6               	nop2
  5195  0CF6  0BF0               	decfsz	??_servo2,f
  5196  0CF7  2CF4               	goto	u293_27
  5197  0CF8  2CF9               	nop2
  5198  0CF9  2CFA               	nop2
  5199  0CFA  2CFB               	nop2
  5200  0CFB                     i1l1752:
  5201                           
  5202                           ;pro2.c: 420: {
  5203  0CFB  1283               	bcf	3,5	;RP0=0, select bank0
  5204  0CFC  1303               	bcf	3,6	;RP1=0, select bank0
  5205  0CFD  1086               	bcf	6,1	;volatile
  5206                           
  5207                           ;pro2.c: 421:             PORTBbits.RB2 = 1;
  5208  0CFE  3033               	movlw	51
  5209  0CFF  00F1               	movwf	??_servo2+1
  5210  0D00  301F               	movlw	31
  5211  0D01  00F0               	movwf	??_servo2
  5212  0D02                     u294_27:
  5213  0D02  0BF0               	decfsz	??_servo2,f
  5214  0D03  2D02               	goto	u294_27
  5215  0D04  0BF1               	decfsz	??_servo2+1,f
  5216  0D05  2D02               	goto	u294_27
  5217  0D06  2D07               	nop2
  5218  0D07                     i1l253:
  5219  0D07  0008               	return
  5220  0D08                     __end_of_servo2:
  5221                           
  5222                           	psect	text23
  5223  0CD6                     __ptext23:	
  5224 ;; *************** function _servo1_5 *****************
  5225 ;; Defined at:
  5226 ;;		line 408 in file "pro2.c"
  5227 ;; Parameters:    Size  Location     Type
  5228 ;;		None
  5229 ;; Auto vars:     Size  Location     Type
  5230 ;;		None
  5231 ;; Return value:  Size  Location     Type
  5232 ;;                  1    wreg      void 
  5233 ;; Registers used:
  5234 ;;		wreg
  5235 ;; Tracked objects:
  5236 ;;		On entry : 0/0
  5237 ;;		On exit  : 0/0
  5238 ;;		Unchanged: 0/0
  5239 ;; Data sizes:     COMMON   BANK0   BANK1   BANK3   BANK2
  5240 ;;      Params:         0       0       0       0       0
  5241 ;;      Locals:         0       0       0       0       0
  5242 ;;      Temps:          2       0       0       0       0
  5243 ;;      Totals:         2       0       0       0       0
  5244 ;;Total ram usage:        2 bytes
  5245 ;; Hardware stack levels used:    1
  5246 ;; This function calls:
  5247 ;;		Nothing
  5248 ;; This function is called by:
  5249 ;;		_isr
  5250 ;;		_nuevo_bit_banging
  5251 ;;		_menu
  5252 ;; This function uses a non-reentrant model
  5253 ;;
  5254                           
  5255                           
  5256                           ;psect for function _servo1_5
  5257  0CD6                     _servo1_5:
  5258  0CD6                     i1l1742:	
  5259                           ;incstack = 0
  5260                           ; Regs used in _servo1_5: [wreg]
  5261                           
  5262                           
  5263                           ;pro2.c: 410: }
  5264  0CD6  1283               	bcf	3,5	;RP0=0, select bank0
  5265  0CD7  1303               	bcf	3,6	;RP1=0, select bank0
  5266  0CD8  1406               	bsf	6,0	;volatile
  5267  0CD9                     i1l1744:
  5268                           
  5269                           ;pro2.c: 411: 
  5270  0CD9  3006               	movlw	6
  5271  0CDA  00F1               	movwf	??_servo1_5+1
  5272  0CDB  3030               	movlw	48
  5273  0CDC  00F0               	movwf	??_servo1_5
  5274  0CDD                     u295_27:
  5275  0CDD  0BF0               	decfsz	??_servo1_5,f
  5276  0CDE  2CDD               	goto	u295_27
  5277  0CDF  0BF1               	decfsz	??_servo1_5+1,f
  5278  0CE0  2CDD               	goto	u295_27
  5279  0CE1  0000               	nop
  5280  0CE2                     i1l1746:
  5281                           
  5282                           ;pro2.c: 412: void servo3(void)
  5283  0CE2  1283               	bcf	3,5	;RP0=0, select bank0
  5284  0CE3  1303               	bcf	3,6	;RP1=0, select bank0
  5285  0CE4  1006               	bcf	6,0	;volatile
  5286                           
  5287                           ;pro2.c: 413: {
  5288  0CE5  302F               	movlw	47
  5289  0CE6  00F1               	movwf	??_servo1_5+1
  5290  0CE7  30BF               	movlw	191
  5291  0CE8  00F0               	movwf	??_servo1_5
  5292  0CE9                     u296_27:
  5293  0CE9  0BF0               	decfsz	??_servo1_5,f
  5294  0CEA  2CE9               	goto	u296_27
  5295  0CEB  0BF1               	decfsz	??_servo1_5+1,f
  5296  0CEC  2CE9               	goto	u296_27
  5297  0CED  2CEE               	nop2
  5298  0CEE                     i1l250:
  5299  0CEE  0008               	return
  5300  0CEF                     __end_of_servo1_5:
  5301                           
  5302                           	psect	text24
  5303  0CBD                     __ptext24:	
  5304 ;; *************** function _servo1 *****************
  5305 ;; Defined at:
  5306 ;;		line 380 in file "pro2.c"
  5307 ;; Parameters:    Size  Location     Type
  5308 ;;		None
  5309 ;; Auto vars:     Size  Location     Type
  5310 ;;		None
  5311 ;; Return value:  Size  Location     Type
  5312 ;;                  1    wreg      void 
  5313 ;; Registers used:
  5314 ;;		wreg
  5315 ;; Tracked objects:
  5316 ;;		On entry : 0/0
  5317 ;;		On exit  : 0/0
  5318 ;;		Unchanged: 0/0
  5319 ;; Data sizes:     COMMON   BANK0   BANK1   BANK3   BANK2
  5320 ;;      Params:         0       0       0       0       0
  5321 ;;      Locals:         0       0       0       0       0
  5322 ;;      Temps:          2       0       0       0       0
  5323 ;;      Totals:         2       0       0       0       0
  5324 ;;Total ram usage:        2 bytes
  5325 ;; Hardware stack levels used:    1
  5326 ;; This function calls:
  5327 ;;		Nothing
  5328 ;; This function is called by:
  5329 ;;		_isr
  5330 ;;		_nuevo_bit_banging
  5331 ;;		_menu
  5332 ;; This function uses a non-reentrant model
  5333 ;;
  5334                           
  5335                           
  5336                           ;psect for function _servo1
  5337  0CBD                     _servo1:
  5338  0CBD                     i1l1718:	
  5339                           ;incstack = 0
  5340                           ; Regs used in _servo1: [wreg]
  5341                           
  5342                           
  5343                           ;pro2.c: 382: }
  5344  0CBD  1283               	bcf	3,5	;RP0=0, select bank0
  5345  0CBE  1303               	bcf	3,6	;RP1=0, select bank0
  5346  0CBF  1406               	bsf	6,0	;volatile
  5347  0CC0                     i1l1720:
  5348                           
  5349                           ;pro2.c: 383: void servo2_2(void)
  5350  0CC0  30C7               	movlw	199
  5351  0CC1  00F0               	movwf	??_servo1
  5352  0CC2                     u297_27:
  5353  0CC2  2CC3               	nop2
  5354  0CC3  2CC4               	nop2
  5355  0CC4  0BF0               	decfsz	??_servo1,f
  5356  0CC5  2CC2               	goto	u297_27
  5357  0CC6  2CC7               	nop2
  5358  0CC7  2CC8               	nop2
  5359  0CC8  2CC9               	nop2
  5360  0CC9                     i1l1722:
  5361                           
  5362                           ;pro2.c: 384: {
  5363  0CC9  1283               	bcf	3,5	;RP0=0, select bank0
  5364  0CCA  1303               	bcf	3,6	;RP1=0, select bank0
  5365  0CCB  1006               	bcf	6,0	;volatile
  5366                           
  5367                           ;pro2.c: 385:             PORTBbits.RB1 = 1;
  5368  0CCC  3033               	movlw	51
  5369  0CCD  00F1               	movwf	??_servo1+1
  5370  0CCE  301F               	movlw	31
  5371  0CCF  00F0               	movwf	??_servo1
  5372  0CD0                     u298_27:
  5373  0CD0  0BF0               	decfsz	??_servo1,f
  5374  0CD1  2CD0               	goto	u298_27
  5375  0CD2  0BF1               	decfsz	??_servo1+1,f
  5376  0CD3  2CD0               	goto	u298_27
  5377  0CD4  2CD5               	nop2
  5378  0CD5                     i1l238:
  5379  0CD5  0008               	return
  5380  0CD6                     __end_of_servo1:
  5381                           
  5382                           	psect	text25
  5383  07AF                     __ptext25:	
  5384 ;; *************** function _printf *****************
  5385 ;; Defined at:
  5386 ;;		line 477 in file "C:\Program Files\Microchip\xc8\v2.31\pic\sources\c90\common\doprnt.c"
  5387 ;; Parameters:    Size  Location     Type
  5388 ;;  f               2    1[COMMON] PTR const unsigned char 
  5389 ;;		 -> STR_19(22), STR_18(13), STR_17(17), STR_16(21), 
  5390 ;;		 -> STR_15(29), STR_14(31), STR_13(29), STR_12(31), 
  5391 ;;		 -> STR_11(20), STR_10(21), STR_9(29), STR_8(30), 
  5392 ;;		 -> STR_7(31), STR_6(34), STR_5(20), STR_4(19), 
  5393 ;;		 -> STR_3(18), STR_2(18), STR_1(30), 
  5394 ;; Auto vars:     Size  Location     Type
  5395 ;;  tmpval          4    0        struct .
  5396 ;;  cp              2    0        PTR const unsigned char 
  5397 ;;  len             2    0        unsigned int 
  5398 ;;  val             2    0        unsigned int 
  5399 ;;  c               1    7[COMMON] unsigned char 
  5400 ;;  ap              1    6[COMMON] PTR void [1]
  5401 ;;		 -> ?_printf(2), 
  5402 ;;  flag            1    0        unsigned char 
  5403 ;;  prec            1    0        char 
  5404 ;; Return value:  Size  Location     Type
  5405 ;;                  2    1[COMMON] int 
  5406 ;; Registers used:
  5407 ;;		wreg, fsr0l, fsr0h, status,2, status,0, btemp+1, pclath, cstack
  5408 ;; Tracked objects:
  5409 ;;		On entry : 0/0
  5410 ;;		On exit  : 0/0
  5411 ;;		Unchanged: 0/0
  5412 ;; Data sizes:     COMMON   BANK0   BANK1   BANK3   BANK2
  5413 ;;      Params:         2       0       0       0       0
  5414 ;;      Locals:         2       0       0       0       0
  5415 ;;      Temps:          3       0       0       0       0
  5416 ;;      Totals:         7       0       0       0       0
  5417 ;;Total ram usage:        7 bytes
  5418 ;; Hardware stack levels used:    1
  5419 ;; Hardware stack levels required when called:    1
  5420 ;; This function calls:
  5421 ;;		_putch
  5422 ;; This function is called by:
  5423 ;;		_menu
  5424 ;; This function uses a non-reentrant model
  5425 ;;
  5426                           
  5427                           
  5428                           ;psect for function _printf
  5429  07AF                     _printf:
  5430  07AF                     i1l1838:	
  5431                           ;incstack = 0
  5432                           ; Regs used in _printf: [wreg-fsr0h+status,2+status,0+btemp+1+pclath+cstack]
  5433                           
  5434                           
  5435                           ;C:\Program Files\Microchip\xc8\v2.31\pic\sources\c90\common\doprnt.c: 477: printf(const
      +                           char * f, ...);C:\Program Files\Microchip\xc8\v2.31\pic\sources\c90\common\doprnt.c: 47
      +                          8: {;C:\Program Files\Microchip\xc8\v2.31\pic\sources\c90\common\doprnt.c: 479:  va_list
      +                           ap;;C:\Program Files\Microchip\xc8\v2.31\pic\sources\c90\common\doprnt.c: 512:  char c;
      +                          ;C:\Program Files\Microchip\xc8\v2.31\pic\sources\c90\common\doprnt.c: 521:  signed char
      +                           prec;;C:\Program Files\Microchip\xc8\v2.31\pic\sources\c90\common\doprnt.c: 525:  unsig
      +                          ned char flag;
  5436  07AF  3073               	movlw	(low ((?_printf| 0+2)))& (0+255)
  5437  07B0  00F3               	movwf	??_printf
  5438  07B1  0873               	movf	??_printf,w
  5439  07B2  00F6               	movwf	printf@ap
  5440                           
  5441                           ;C:\Program Files\Microchip\xc8\v2.31\pic\sources\c90\common\doprnt.c: 553:  while((c = 
      +                          *f++)) {
  5442  07B3  2FBA               	goto	i1l1842
  5443  07B4                     i1l1840:
  5444                           
  5445                           ;C:\Program Files\Microchip\xc8\v2.31\pic\sources\c90\common\doprnt.c: 557:   {;C:\Progr
      +                          am Files\Microchip\xc8\v2.31\pic\sources\c90\common\doprnt.c: 558:    (putch(c) );
  5446  07B4  0877               	movf	printf@c,w
  5447  07B5  120A  118A  24F5  120A  118A  	fcall	_putch
  5448  07BA                     i1l1842:	
  5449                           ;C:\Program Files\Microchip\xc8\v2.31\pic\sources\c90\common\doprnt.c: 559:    continue;
  5450                           
  5451                           
  5452                           ;C:\Program Files\Microchip\xc8\v2.31\pic\sources\c90\common\doprnt.c: 553:  while((c = 
      +                          *f++)) {
  5453  07BA  0872               	movf	printf@f+1,w
  5454  07BB  00F4               	movwf	??_printf+1
  5455  07BC  0871               	movf	printf@f,w
  5456  07BD  00F3               	movwf	??_printf
  5457  07BE  0AF1               	incf	printf@f,f
  5458  07BF  1903               	skipnz
  5459  07C0  0AF2               	incf	printf@f+1,f
  5460  07C1  0874               	movf	??_printf+1,w
  5461  07C2  1283               	bcf	3,5	;RP0=0, select bank0
  5462  07C3  1303               	bcf	3,6	;RP1=0, select bank0
  5463  07C4  00FF               	movwf	btemp+1
  5464  07C5  0873               	movf	??_printf,w
  5465  07C6  0084               	movwf	4
  5466  07C7  120A  158A  2000  120A  118A  	fcall	stringtab
  5467  07CC  00F5               	movwf	??_printf+2
  5468  07CD  0875               	movf	??_printf+2,w
  5469  07CE  00F7               	movwf	printf@c
  5470  07CF  0877               	movf	printf@c,w
  5471  07D0  1D03               	btfss	3,2
  5472  07D1  2FD3               	goto	u120_21
  5473  07D2  2FD4               	goto	u120_20
  5474  07D3                     u120_21:
  5475  07D3  2FB4               	goto	i1l1840
  5476  07D4                     u120_20:
  5477  07D4                     i1l472:
  5478  07D4  0008               	return
  5479  07D5                     __end_of_printf:
  5480                           
  5481                           	psect	text26
  5482  04F5                     __ptext26:	
  5483 ;; *************** function _putch *****************
  5484 ;; Defined at:
  5485 ;;		line 770 in file "pro2.c"
  5486 ;; Parameters:    Size  Location     Type
  5487 ;;  info            1    wreg     unsigned char 
  5488 ;; Auto vars:     Size  Location     Type
  5489 ;;  info            1    0[COMMON] unsigned char 
  5490 ;; Return value:  Size  Location     Type
  5491 ;;                  1    wreg      void 
  5492 ;; Registers used:
  5493 ;;		wreg
  5494 ;; Tracked objects:
  5495 ;;		On entry : 0/0
  5496 ;;		On exit  : 0/0
  5497 ;;		Unchanged: 0/0
  5498 ;; Data sizes:     COMMON   BANK0   BANK1   BANK3   BANK2
  5499 ;;      Params:         0       0       0       0       0
  5500 ;;      Locals:         1       0       0       0       0
  5501 ;;      Temps:          0       0       0       0       0
  5502 ;;      Totals:         1       0       0       0       0
  5503 ;;Total ram usage:        1 bytes
  5504 ;; Hardware stack levels used:    1
  5505 ;; This function calls:
  5506 ;;		Nothing
  5507 ;; This function is called by:
  5508 ;;		_printf
  5509 ;; This function uses a non-reentrant model
  5510 ;;
  5511                           
  5512                           
  5513                           ;psect for function _putch
  5514  04F5                     _putch:
  5515                           
  5516                           ;incstack = 0
  5517                           ; Regs used in _putch: [wreg]
  5518                           ;putch@info stored from wreg
  5519  04F5  00F0               	movwf	putch@info
  5520  04F6                     i1l1714:
  5521  04F6                     i1l377:
  5522  04F6  1283               	bcf	3,5	;RP0=0, select bank0
  5523  04F7  1303               	bcf	3,6	;RP1=0, select bank0
  5524  04F8  1E0C               	btfss	12,4	;volatile
  5525  04F9  2CFB               	goto	u119_21
  5526  04FA  2CFC               	goto	u119_20
  5527  04FB                     u119_21:
  5528  04FB  2CF6               	goto	i1l377
  5529  04FC                     u119_20:
  5530  04FC                     i1l1716:
  5531  04FC  0870               	movf	putch@info,w
  5532  04FD  0099               	movwf	25	;volatile
  5533  04FE                     i1l380:
  5534  04FE  0008               	return
  5535  04FF                     __end_of_putch:
  5536                           
  5537                           	psect	text27
  5538  0CAC                     __ptext27:	
  5539 ;; *************** function _leer_eeprom *****************
  5540 ;; Defined at:
  5541 ;;		line 523 in file "pro2.c"
  5542 ;; Parameters:    Size  Location     Type
  5543 ;;  direccion       1    wreg     unsigned char 
  5544 ;; Auto vars:     Size  Location     Type
  5545 ;;  direccion       1    1[COMMON] unsigned char 
  5546 ;;  data            1    2[COMMON] unsigned char 
  5547 ;; Return value:  Size  Location     Type
  5548 ;;                  1    wreg      unsigned char 
  5549 ;; Registers used:
  5550 ;;		wreg
  5551 ;; Tracked objects:
  5552 ;;		On entry : 0/0
  5553 ;;		On exit  : 0/0
  5554 ;;		Unchanged: 0/0
  5555 ;; Data sizes:     COMMON   BANK0   BANK1   BANK3   BANK2
  5556 ;;      Params:         0       0       0       0       0
  5557 ;;      Locals:         2       0       0       0       0
  5558 ;;      Temps:          1       0       0       0       0
  5559 ;;      Totals:         3       0       0       0       0
  5560 ;;Total ram usage:        3 bytes
  5561 ;; Hardware stack levels used:    1
  5562 ;; This function calls:
  5563 ;;		Nothing
  5564 ;; This function is called by:
  5565 ;;		_isr
  5566 ;; This function uses a non-reentrant model
  5567 ;;
  5568                           
  5569                           
  5570                           ;psect for function _leer_eeprom
  5571  0CAC                     _leer_eeprom:
  5572                           
  5573                           ;incstack = 0
  5574                           ; Regs used in _leer_eeprom: [wreg]
  5575                           ;leer_eeprom@direccion stored from wreg
  5576  0CAC  00F1               	movwf	leer_eeprom@direccion
  5577  0CAD                     i1l1854:
  5578                           
  5579                           ;pro2.c: 523:      servo1_3();;pro2.c: 524:     };pro2.c: 525:     if((M4<=203)&&(M4>=15
      +                          3))
  5580  0CAD  0871               	movf	leer_eeprom@direccion,w
  5581  0CAE  1283               	bcf	3,5	;RP0=0, select bank2
  5582  0CAF  1703               	bsf	3,6	;RP1=1, select bank2
  5583  0CB0  008D               	movwf	13	;volatile
  5584  0CB1                     i1l1856:
  5585                           
  5586                           ;pro2.c: 526:     {
  5587  0CB1  1683               	bsf	3,5	;RP0=1, select bank3
  5588  0CB2  1703               	bsf	3,6	;RP1=1, select bank3
  5589  0CB3  138C               	bcf	12,7	;volsfr
  5590  0CB4                     i1l1858:
  5591                           
  5592                           ;pro2.c: 527:      servo1_4();
  5593  0CB4  140C               	bsf	12,0	;volsfr
  5594                           
  5595                           ;pro2.c: 528:     }
  5596  0CB5  1283               	bcf	3,5	;RP0=0, select bank2
  5597  0CB6  1703               	bsf	3,6	;RP1=1, select bank2
  5598  0CB7  080C               	movf	12,w	;volatile
  5599  0CB8  00F0               	movwf	??_leer_eeprom
  5600  0CB9  0870               	movf	??_leer_eeprom,w
  5601  0CBA  00F2               	movwf	leer_eeprom@data
  5602                           
  5603                           ;pro2.c: 529:     if(M4>=204)
  5604  0CBB  0872               	movf	leer_eeprom@data,w
  5605  0CBC                     i1l298:
  5606  0CBC  0008               	return
  5607  0CBD                     __end_of_leer_eeprom:
  5608                           
  5609                           	psect	text28
  5610  07D5                     __ptext28:	
  5611 ;; *************** function _escribir_eeprom *****************
  5612 ;; Defined at:
  5613 ;;		line 531 in file "pro2.c"
  5614 ;; Parameters:    Size  Location     Type
  5615 ;;  data            1    wreg     unsigned char 
  5616 ;;  direccion       1    0[COMMON] unsigned char 
  5617 ;; Auto vars:     Size  Location     Type
  5618 ;;  data            1    1[COMMON] unsigned char 
  5619 ;; Return value:  Size  Location     Type
  5620 ;;                  1    wreg      void 
  5621 ;; Registers used:
  5622 ;;		wreg
  5623 ;; Tracked objects:
  5624 ;;		On entry : 0/0
  5625 ;;		On exit  : 0/0
  5626 ;;		Unchanged: 0/0
  5627 ;; Data sizes:     COMMON   BANK0   BANK1   BANK3   BANK2
  5628 ;;      Params:         1       0       0       0       0
  5629 ;;      Locals:         1       0       0       0       0
  5630 ;;      Temps:          0       0       0       0       0
  5631 ;;      Totals:         2       0       0       0       0
  5632 ;;Total ram usage:        2 bytes
  5633 ;; Hardware stack levels used:    1
  5634 ;; This function calls:
  5635 ;;		Nothing
  5636 ;; This function is called by:
  5637 ;;		_isr
  5638 ;; This function uses a non-reentrant model
  5639 ;;
  5640                           
  5641                           
  5642                           ;psect for function _escribir_eeprom
  5643  07D5                     _escribir_eeprom:
  5644                           
  5645                           ;incstack = 0
  5646                           ; Regs used in _escribir_eeprom: [wreg]
  5647                           ;escribir_eeprom@data stored from wreg
  5648  07D5  00F1               	movwf	escribir_eeprom@data
  5649  07D6                     i1l1844:
  5650                           
  5651                           ;pro2.c: 531:      servo1_5();;pro2.c: 532:     };pro2.c: 533: 
  5652  07D6  0870               	movf	escribir_eeprom@direccion,w
  5653  07D7  1283               	bcf	3,5	;RP0=0, select bank2
  5654  07D8  1703               	bsf	3,6	;RP1=1, select bank2
  5655  07D9  008D               	movwf	13	;volatile
  5656                           
  5657                           ;pro2.c: 534: 
  5658  07DA  0871               	movf	escribir_eeprom@data,w
  5659  07DB  008C               	movwf	12	;volatile
  5660  07DC                     i1l1846:
  5661                           
  5662                           ;pro2.c: 536:     {
  5663  07DC  1683               	bsf	3,5	;RP0=1, select bank3
  5664  07DD  1703               	bsf	3,6	;RP1=1, select bank3
  5665  07DE  138C               	bcf	12,7	;volsfr
  5666  07DF                     i1l1848:
  5667                           
  5668                           ;pro2.c: 537:      servo2();
  5669  07DF  150C               	bsf	12,2	;volsfr
  5670  07E0                     i1l1850:
  5671                           
  5672                           ;pro2.c: 539:     if((M5<=101)&&(M5>=51))
  5673  07E0  138B               	bcf	11,7	;volatile
  5674                           
  5675                           ;pro2.c: 540:     {
  5676  07E1  3055               	movlw	85
  5677  07E2  008D               	movwf	13	;volsfr
  5678                           
  5679                           ;pro2.c: 541:      servo2_2();
  5680  07E3  30AA               	movlw	170
  5681  07E4  008D               	movwf	13	;volsfr
  5682  07E5                     i1l1852:
  5683                           
  5684                           ;pro2.c: 543:     if((M5<=152)&&(M5>=102))
  5685  07E5  148C               	bsf	12,1	;volsfr
  5686  07E6                     i1l301:	
  5687                           ;pro2.c: 545:      servo2_3();
  5688                           
  5689  07E6  1283               	bcf	3,5	;RP0=0, select bank0
  5690  07E7  1303               	bcf	3,6	;RP1=0, select bank0
  5691  07E8  1E0D               	btfss	13,4	;volatile
  5692  07E9  2FEB               	goto	u121_21
  5693  07EA  2FEC               	goto	u121_20
  5694  07EB                     u121_21:
  5695  07EB  2FE6               	goto	i1l301
  5696  07EC                     u121_20:
  5697  07EC                     i1l303:
  5698                           
  5699                           ;pro2.c: 546:     }
  5700  07EC  120D               	bcf	13,4	;volatile
  5701                           
  5702                           ;pro2.c: 548:     {
  5703  07ED  1683               	bsf	3,5	;RP0=1, select bank3
  5704  07EE  1703               	bsf	3,6	;RP1=1, select bank3
  5705  07EF  110C               	bcf	12,2	;volsfr
  5706                           
  5707                           ;pro2.c: 549:      servo2_4();
  5708  07F0  138B               	bcf	11,7	;volatile
  5709  07F1                     i1l304:
  5710  07F1  0008               	return
  5711  07F2                     __end_of_escribir_eeprom:
  5712                           
  5713                           	psect	text29
  5714  0748                     __ptext29:	
  5715 ;; *************** function ___awdiv *****************
  5716 ;; Defined at:
  5717 ;;		line 5 in file "C:\Program Files\Microchip\xc8\v2.31\pic\sources\c90\common\awdiv.c"
  5718 ;; Parameters:    Size  Location     Type
  5719 ;;  divisor         2    0[COMMON] int 
  5720 ;;  dividend        2    2[COMMON] int 
  5721 ;; Auto vars:     Size  Location     Type
  5722 ;;  quotient        2    7[COMMON] int 
  5723 ;;  sign            1    6[COMMON] unsigned char 
  5724 ;;  counter         1    5[COMMON] unsigned char 
  5725 ;; Return value:  Size  Location     Type
  5726 ;;                  2    0[COMMON] int 
  5727 ;; Registers used:
  5728 ;;		wreg, status,2, status,0
  5729 ;; Tracked objects:
  5730 ;;		On entry : 0/0
  5731 ;;		On exit  : 0/0
  5732 ;;		Unchanged: 0/0
  5733 ;; Data sizes:     COMMON   BANK0   BANK1   BANK3   BANK2
  5734 ;;      Params:         4       0       0       0       0
  5735 ;;      Locals:         4       0       0       0       0
  5736 ;;      Temps:          1       0       0       0       0
  5737 ;;      Totals:         9       0       0       0       0
  5738 ;;Total ram usage:        9 bytes
  5739 ;; Hardware stack levels used:    1
  5740 ;; This function calls:
  5741 ;;		Nothing
  5742 ;; This function is called by:
  5743 ;;		_isr
  5744 ;; This function uses a non-reentrant model
  5745 ;;
  5746                           
  5747                           
  5748                           ;psect for function ___awdiv
  5749  0748                     ___awdiv:
  5750  0748                     i1l2210:	
  5751                           ;incstack = 0
  5752                           ; Regs used in ___awdiv: [wreg+status,2+status,0]
  5753                           
  5754  0748  01F6               	clrf	___awdiv@sign
  5755  0749                     i1l2212:
  5756  0749  1FF1               	btfss	___awdiv@divisor+1,7
  5757  074A  2F4C               	goto	u181_21
  5758  074B  2F4D               	goto	u181_20
  5759  074C                     u181_21:
  5760  074C  2F54               	goto	i1l2218
  5761  074D                     u181_20:
  5762  074D                     i1l2214:
  5763  074D  09F0               	comf	___awdiv@divisor,f
  5764  074E  09F1               	comf	___awdiv@divisor+1,f
  5765  074F  0AF0               	incf	___awdiv@divisor,f
  5766  0750  1903               	skipnz
  5767  0751  0AF1               	incf	___awdiv@divisor+1,f
  5768  0752                     i1l2216:
  5769  0752  01F6               	clrf	___awdiv@sign
  5770  0753  0AF6               	incf	___awdiv@sign,f
  5771  0754                     i1l2218:
  5772  0754  1FF3               	btfss	___awdiv@dividend+1,7
  5773  0755  2F57               	goto	u182_21
  5774  0756  2F58               	goto	u182_20
  5775  0757                     u182_21:
  5776  0757  2F61               	goto	i1l2224
  5777  0758                     u182_20:
  5778  0758                     i1l2220:
  5779  0758  09F2               	comf	___awdiv@dividend,f
  5780  0759  09F3               	comf	___awdiv@dividend+1,f
  5781  075A  0AF2               	incf	___awdiv@dividend,f
  5782  075B  1903               	skipnz
  5783  075C  0AF3               	incf	___awdiv@dividend+1,f
  5784  075D                     i1l2222:
  5785  075D  3001               	movlw	1
  5786  075E  00F4               	movwf	??___awdiv
  5787  075F  0874               	movf	??___awdiv,w
  5788  0760  06F6               	xorwf	___awdiv@sign,f
  5789  0761                     i1l2224:
  5790  0761  01F7               	clrf	___awdiv@quotient
  5791  0762  01F8               	clrf	___awdiv@quotient+1
  5792  0763                     i1l2226:
  5793  0763  0870               	movf	___awdiv@divisor,w
  5794  0764  0471               	iorwf	___awdiv@divisor+1,w
  5795  0765  1903               	btfsc	3,2
  5796  0766  2F68               	goto	u183_21
  5797  0767  2F69               	goto	u183_20
  5798  0768                     u183_21:
  5799  0768  2FA0               	goto	i1l2246
  5800  0769                     u183_20:
  5801  0769                     i1l2228:
  5802  0769  01F5               	clrf	___awdiv@counter
  5803  076A  0AF5               	incf	___awdiv@counter,f
  5804  076B  2F77               	goto	i1l2234
  5805  076C                     i1l2230:
  5806  076C  3001               	movlw	1
  5807  076D                     u184_25:
  5808  076D  1003               	clrc
  5809  076E  0DF0               	rlf	___awdiv@divisor,f
  5810  076F  0DF1               	rlf	___awdiv@divisor+1,f
  5811  0770  3EFF               	addlw	-1
  5812  0771  1D03               	skipz
  5813  0772  2F6D               	goto	u184_25
  5814  0773                     i1l2232:
  5815  0773  3001               	movlw	1
  5816  0774  00F4               	movwf	??___awdiv
  5817  0775  0874               	movf	??___awdiv,w
  5818  0776  07F5               	addwf	___awdiv@counter,f
  5819  0777                     i1l2234:
  5820  0777  1FF1               	btfss	___awdiv@divisor+1,7
  5821  0778  2F7A               	goto	u185_21
  5822  0779  2F7B               	goto	u185_20
  5823  077A                     u185_21:
  5824  077A  2F6C               	goto	i1l2230
  5825  077B                     u185_20:
  5826  077B                     i1l2236:
  5827  077B  3001               	movlw	1
  5828  077C                     u186_25:
  5829  077C  1003               	clrc
  5830  077D  0DF7               	rlf	___awdiv@quotient,f
  5831  077E  0DF8               	rlf	___awdiv@quotient+1,f
  5832  077F  3EFF               	addlw	-1
  5833  0780  1D03               	skipz
  5834  0781  2F7C               	goto	u186_25
  5835  0782  0871               	movf	___awdiv@divisor+1,w
  5836  0783  0273               	subwf	___awdiv@dividend+1,w
  5837  0784  1D03               	skipz
  5838  0785  2F88               	goto	u187_25
  5839  0786  0870               	movf	___awdiv@divisor,w
  5840  0787  0272               	subwf	___awdiv@dividend,w
  5841  0788                     u187_25:
  5842  0788  1C03               	skipc
  5843  0789  2F8B               	goto	u187_21
  5844  078A  2F8C               	goto	u187_20
  5845  078B                     u187_21:
  5846  078B  2F93               	goto	i1l2242
  5847  078C                     u187_20:
  5848  078C                     i1l2238:
  5849  078C  0870               	movf	___awdiv@divisor,w
  5850  078D  02F2               	subwf	___awdiv@dividend,f
  5851  078E  0871               	movf	___awdiv@divisor+1,w
  5852  078F  1C03               	skipc
  5853  0790  03F3               	decf	___awdiv@dividend+1,f
  5854  0791  02F3               	subwf	___awdiv@dividend+1,f
  5855  0792                     i1l2240:
  5856  0792  1477               	bsf	___awdiv@quotient,0
  5857  0793                     i1l2242:
  5858  0793  3001               	movlw	1
  5859  0794                     u188_25:
  5860  0794  1003               	clrc
  5861  0795  0CF1               	rrf	___awdiv@divisor+1,f
  5862  0796  0CF0               	rrf	___awdiv@divisor,f
  5863  0797  3EFF               	addlw	-1
  5864  0798  1D03               	skipz
  5865  0799  2F94               	goto	u188_25
  5866  079A                     i1l2244:
  5867  079A  3001               	movlw	1
  5868  079B  02F5               	subwf	___awdiv@counter,f
  5869  079C  1D03               	btfss	3,2
  5870  079D  2F9F               	goto	u189_21
  5871  079E  2FA0               	goto	u189_20
  5872  079F                     u189_21:
  5873  079F  2F7B               	goto	i1l2236
  5874  07A0                     u189_20:
  5875  07A0                     i1l2246:
  5876  07A0  0876               	movf	___awdiv@sign,w
  5877  07A1  1903               	btfsc	3,2
  5878  07A2  2FA4               	goto	u190_21
  5879  07A3  2FA5               	goto	u190_20
  5880  07A4                     u190_21:
  5881  07A4  2FAA               	goto	i1l2250
  5882  07A5                     u190_20:
  5883  07A5                     i1l2248:
  5884  07A5  09F7               	comf	___awdiv@quotient,f
  5885  07A6  09F8               	comf	___awdiv@quotient+1,f
  5886  07A7  0AF7               	incf	___awdiv@quotient,f
  5887  07A8  1903               	skipnz
  5888  07A9  0AF8               	incf	___awdiv@quotient+1,f
  5889  07AA                     i1l2250:
  5890  07AA  0878               	movf	___awdiv@quotient+1,w
  5891  07AB  00F1               	movwf	?___awdiv+1
  5892  07AC  0877               	movf	___awdiv@quotient,w
  5893  07AD  00F0               	movwf	?___awdiv
  5894  07AE                     i1l629:
  5895  07AE  0008               	return
  5896  07AF                     __end_of___awdiv:
  5897  007E                     btemp	set	126	;btemp
  5898  007E                     wtemp0	set	126
  5899                           
  5900                           	psect	config
  5901                           
  5902                           ;Config register CONFIG1 @ 0x2007
  5903                           ;	Oscillator Selection bits
  5904                           ;	FOSC = INTRC_NOCLKOUT, INTOSCIO oscillator: I/O function on RA6/OSC2/CLKOUT pin, I/O f
      +                          unction on RA7/OSC1/CLKIN
  5905                           ;	Watchdog Timer Enable bit
  5906                           ;	WDTE = OFF, WDT disabled and can be enabled by SWDTEN bit of the WDTCON register
  5907                           ;	Power-up Timer Enable bit
  5908                           ;	PWRTE = OFF, PWRT disabled
  5909                           ;	RE3/MCLR pin function select bit
  5910                           ;	MCLRE = OFF, RE3/MCLR pin function is digital input, MCLR internally tied to VDD
  5911                           ;	Code Protection bit
  5912                           ;	CP = OFF, Program memory code protection is disabled
  5913                           ;	Data Code Protection bit
  5914                           ;	CPD = OFF, Data memory code protection is disabled
  5915                           ;	Brown Out Reset Selection bits
  5916                           ;	BOREN = OFF, BOR disabled
  5917                           ;	Internal External Switchover bit
  5918                           ;	IESO = OFF, Internal/External Switchover mode is disabled
  5919                           ;	Fail-Safe Clock Monitor Enabled bit
  5920                           ;	FCMEN = OFF, Fail-Safe Clock Monitor is disabled
  5921                           ;	Low Voltage Programming Enable bit
  5922                           ;	LVP = OFF, RB3 pin has digital I/O, HV on MCLR must be used for programming
  5923                           ;	In-Circuit Debugger Mode bit
  5924                           ;	DEBUG = 0x1, unprogrammed default
  5925  2007                     	org	8199
  5926  2007  20D4               	dw	8404
  5927                           
  5928                           ;Config register CONFIG2 @ 0x2008
  5929                           ;	Brown-out Reset Selection bit
  5930                           ;	BOR4V = BOR40V, Brown-out Reset set to 4.0V
  5931                           ;	Flash Program Memory Self Write Enable bits
  5932                           ;	WRT = OFF, Write protection off
  5933  2008                     	org	8200
  5934  2008  3FFF               	dw	16383

Data Sizes:
    Strings     463
    Constant    0
    Data        0
    BSS         12
    Persistent  0
    Stack       0

Auto Spaces:
    Space          Size  Autos    Used
    COMMON           14     10      14
    BANK0            80      7      15
    BANK1            80      0       0
    BANK3            96      0       0
    BANK2            96      0       0

Pointer List with Targets:

    printf@f	PTR const unsigned char  size(2) Largest target is 34
		 -> STR_19(CODE[22]), STR_18(CODE[13]), STR_17(CODE[17]), STR_16(CODE[21]), 
		 -> STR_15(CODE[29]), STR_14(CODE[31]), STR_13(CODE[29]), STR_12(CODE[31]), 
		 -> STR_11(CODE[20]), STR_10(CODE[21]), STR_9(CODE[29]), STR_8(CODE[30]), 
		 -> STR_7(CODE[31]), STR_6(CODE[34]), STR_5(CODE[20]), STR_4(CODE[19]), 
		 -> STR_3(CODE[18]), STR_2(CODE[18]), STR_1(CODE[30]), 

    printf@ap	PTR void [1] size(1) Largest target is 2
		 -> ?_printf(COMMON[2]), 


Critical Paths under _main in COMMON

    None.

Critical Paths under _isr in COMMON

    _isr->_menu
    _nuevo_bit_banging->_servo1
    _nuevo_bit_banging->_servo1_2
    _nuevo_bit_banging->_servo1_3
    _nuevo_bit_banging->_servo1_4
    _nuevo_bit_banging->_servo1_5
    _nuevo_bit_banging->_servo2
    _nuevo_bit_banging->_servo2_2
    _nuevo_bit_banging->_servo2_3
    _nuevo_bit_banging->_servo2_4
    _nuevo_bit_banging->_servo2_5
    _nuevo_bit_banging->_servo3
    _nuevo_bit_banging->_servo3_2
    _nuevo_bit_banging->_servo3_3
    _nuevo_bit_banging->_servo3_4
    _nuevo_bit_banging->_servo3_5
    _nuevo_bit_banging->_servo4
    _nuevo_bit_banging->_servo4_2
    _nuevo_bit_banging->_servo4_3
    _nuevo_bit_banging->_servo4_4
    _nuevo_bit_banging->_servo4_5
    _menu->_printf
    _printf->_putch

Critical Paths under _main in BANK0

    None.

Critical Paths under _isr in BANK0

    None.

Critical Paths under _main in BANK1

    None.

Critical Paths under _isr in BANK1

    None.

Critical Paths under _main in BANK3

    None.

Critical Paths under _isr in BANK3

    None.

Critical Paths under _main in BANK2

    None.

Critical Paths under _isr in BANK2

    None.

Call Graph Tables:

 ---------------------------------------------------------------------------------
 (Depth) Function   	        Calls       Base Space   Used Autos Params    Refs
 ---------------------------------------------------------------------------------
 (0) _main                                                 0     0      0       0
                              _setup
 ---------------------------------------------------------------------------------
 (1) _setup                                                0     0      0       0
 ---------------------------------------------------------------------------------
 Estimated maximum stack depth 1
 ---------------------------------------------------------------------------------
 (Depth) Function   	        Calls       Base Space   Used Autos Params    Refs
 ---------------------------------------------------------------------------------
 (2) _isr                                                  7     7      0    2585
                                              0 BANK0      7     7      0
                            ___awdiv
                    _escribir_eeprom
                        _leer_eeprom
                               _menu
                  _nuevo_bit_banging
                             _servo1
                           _servo1_2
                           _servo1_3
                           _servo1_4
                           _servo1_5
                             _servo2
                           _servo2_2
                           _servo2_3
                           _servo2_4
                           _servo2_5
                             _servo3
                           _servo3_2
                           _servo3_3
                           _servo3_4
                           _servo3_5
                             _servo4
                           _servo4_2
                           _servo4_3
                           _servo4_4
                           _servo4_5
 ---------------------------------------------------------------------------------
 (3) _nuevo_bit_banging                                    0     0      0       0
                             _servo1
                           _servo1_2
                           _servo1_3
                           _servo1_4
                           _servo1_5
                             _servo2
                           _servo2_2
                           _servo2_3
                           _servo2_4
                           _servo2_5
                             _servo3
                           _servo3_2
                           _servo3_3
                           _servo3_4
                           _servo3_5
                             _servo4
                           _servo4_2
                           _servo4_3
                           _servo4_4
                           _servo4_5
 ---------------------------------------------------------------------------------
 (3) _servo4_4                                             2     2      0       0
                                              0 COMMON     2     2      0
 ---------------------------------------------------------------------------------
 (3) _servo4_3                                             2     2      0       0
                                              0 COMMON     2     2      0
 ---------------------------------------------------------------------------------
 (3) _servo4_2                                             2     2      0       0
                                              0 COMMON     2     2      0
 ---------------------------------------------------------------------------------
 (3) _servo3_4                                             2     2      0       0
                                              0 COMMON     2     2      0
 ---------------------------------------------------------------------------------
 (3) _servo3_3                                             2     2      0       0
                                              0 COMMON     2     2      0
 ---------------------------------------------------------------------------------
 (3) _servo3_2                                             2     2      0       0
                                              0 COMMON     2     2      0
 ---------------------------------------------------------------------------------
 (3) _servo2_4                                             2     2      0       0
                                              0 COMMON     2     2      0
 ---------------------------------------------------------------------------------
 (3) _servo2_3                                             2     2      0       0
                                              0 COMMON     2     2      0
 ---------------------------------------------------------------------------------
 (3) _servo2_2                                             2     2      0       0
                                              0 COMMON     2     2      0
 ---------------------------------------------------------------------------------
 (3) _servo1_4                                             2     2      0       0
                                              0 COMMON     2     2      0
 ---------------------------------------------------------------------------------
 (3) _servo1_3                                             2     2      0       0
                                              0 COMMON     2     2      0
 ---------------------------------------------------------------------------------
 (3) _servo1_2                                             2     2      0       0
                                              0 COMMON     2     2      0
 ---------------------------------------------------------------------------------
 (3) _menu                                                 2     2      0    1512
                                              8 COMMON     2     2      0
                             _printf
                             _servo1
                           _servo1_5
                             _servo2
                           _servo2_5
                             _servo3
                           _servo3_5
                             _servo4
                           _servo4_5
 ---------------------------------------------------------------------------------
 (3) _servo4_5                                             2     2      0       0
                                              0 COMMON     2     2      0
 ---------------------------------------------------------------------------------
 (3) _servo4                                               2     2      0       0
                                              0 COMMON     2     2      0
 ---------------------------------------------------------------------------------
 (3) _servo3_5                                             2     2      0       0
                                              0 COMMON     2     2      0
 ---------------------------------------------------------------------------------
 (3) _servo3                                               2     2      0       0
                                              0 COMMON     2     2      0
 ---------------------------------------------------------------------------------
 (3) _servo2_5                                             2     2      0       0
                                              0 COMMON     2     2      0
 ---------------------------------------------------------------------------------
 (3) _servo2                                               2     2      0       0
                                              0 COMMON     2     2      0
 ---------------------------------------------------------------------------------
 (3) _servo1_5                                             2     2      0       0
                                              0 COMMON     2     2      0
 ---------------------------------------------------------------------------------
 (3) _servo1                                               2     2      0       0
                                              0 COMMON     2     2      0
 ---------------------------------------------------------------------------------
 (4) _printf                                              19    17      2    1512
                                              1 COMMON     7     5      2
                              _putch
 ---------------------------------------------------------------------------------
 (5) _putch                                                1     1      0      22
                                              0 COMMON     1     1      0
 ---------------------------------------------------------------------------------
 (3) _leer_eeprom                                          3     3      0      45
                                              0 COMMON     3     3      0
 ---------------------------------------------------------------------------------
 (3) _escribir_eeprom                                      2     1      1     424
                                              0 COMMON     2     1      1
 ---------------------------------------------------------------------------------
 (3) ___awdiv                                              9     5      4     604
                                              0 COMMON     9     5      4
 ---------------------------------------------------------------------------------
 Estimated maximum stack depth 5
 ---------------------------------------------------------------------------------

 Call Graph Graphs:

 _main (ROOT)
   _setup

 _isr (ROOT)
   ___awdiv
   _escribir_eeprom
   _leer_eeprom
   _menu
     _printf
       _putch
     _servo1
     _servo1_5
     _servo2
     _servo2_5
     _servo3
     _servo3_5
     _servo4
     _servo4_5
   _nuevo_bit_banging
     _servo1
     _servo1_2
     _servo1_3
     _servo1_4
     _servo1_5
     _servo2
     _servo2_2
     _servo2_3
     _servo2_4
     _servo2_5
     _servo3
     _servo3_2
     _servo3_3
     _servo3_4
     _servo3_5
     _servo4
     _servo4_2
     _servo4_3
     _servo4_4
     _servo4_5
   _servo1
   _servo1_2
   _servo1_3
   _servo1_4
   _servo1_5
   _servo2
   _servo2_2
   _servo2_3
   _servo2_4
   _servo2_5
   _servo3
   _servo3_2
   _servo3_3
   _servo3_4
   _servo3_5
   _servo4
   _servo4_2
   _servo4_3
   _servo4_4
   _servo4_5

 Address spaces:
Name               Size   Autos  Total    Cost      Usage
BITCOMMON            E      0       0       0        0.0%
EEDATA             100      0       0       0        0.0%
NULL                 0      0       0       0        0.0%
CODE                 0      0       0       0        0.0%
COMMON               E      A       E       1      100.0%
BITSFR0              0      0       0       1        0.0%
SFR0                 0      0       0       1        0.0%
BITSFR1              0      0       0       2        0.0%
SFR1                 0      0       0       2        0.0%
STACK                0      0       0       2        0.0%
ABS                  0      0      1D       3        0.0%
BITBANK0            50      0       0       4        0.0%
BITSFR3              0      0       0       4        0.0%
SFR3                 0      0       0       4        0.0%
BANK0               50      7       F       5       18.8%
BITSFR2              0      0       0       5        0.0%
SFR2                 0      0       0       5        0.0%
BITBANK1            50      0       0       6        0.0%
BANK1               50      0       0       7        0.0%
BITBANK3            60      0       0       8        0.0%
BANK3               60      0       0       9        0.0%
BITBANK2            60      0       0      10        0.0%
BANK2               60      0       0      11        0.0%
DATA                 0      0      1D      12        0.0%


Microchip Technology PIC Macro Assembler V2.31 build 20201012212115 
Symbol Table                                                                                   Fri Jun 04 02:11:31 2021

                         _M 007D                           pc 0002                          _M1 007C  
                        _M2 007B                          _M3 007A                          _M4 0027  
                        _M5 0026                          _M6 0025                          _M7 0024  
              ___awdiv@sign 0076                          fsr 0004                         l232 071E  
                       l234 0722                         l235 0747                         _RE0 0048  
                       _RE1 0049                         _RE2 004A                         _PR2 0092  
                       _isr 0027                         fsr0 0004                         indf 0000  
                      l2110 06D9                        l2102 06CF                        l2200 073E  
                      l2120 06DE                        l2112 06DA                        l2104 06D3  
                      l2202 0741                        l2130 06E3                        l2122 06DF  
                      l2114 06DB                        l2106 06D4                        l2204 0744  
                      l2140 06F1                        l2132 06E4                        l2124 06E0  
                      l2116 06DC                        l2108 06D8                        l2206 0745  
                      l2150 06F7                        l2142 06F2                        l2134 06EC  
                      l2126 06E1                        l2118 06DD                        l2208 0746  
                      l2160 06FF                        l2152 06F8                        l2144 06F3  
                      l2136 06EF                        l2128 06E2                        l2170 0706  
                      l2162 0702                        l2154 06FC                        l2146 06F5  
                      l2138 06F0                        l2180 0712                        l2172 0708  
                      l2164 0703                        l2156 06FD                        l2148 06F6  
                      l2190 071B                        l2182 0714                        l2174 070C  
                      l2166 0704                        l2158 06FE                        l2192 071D  
                      l2184 0716                        l2176 0710                        l2168 0705  
                      l2194 0738                        l2186 0718                        l2178 0711  
                      l2442 07F2                        l2196 073C                        l2188 071A  
                      l2444 07F7                        l2198 073D                        ?_isr 0070  
              ?_leer_eeprom 0070                        STR_1 059D                        STR_2 069F  
                      STR_3 068D                        STR_4 067A                        STR_5 0666  
                      STR_6 0500                        STR_7 0560                        STR_8 057F  
                      STR_9 05F5                        u1800 0722                        u1801 0721  
                      _RBIF 0058                        _RCIF 0065                        _TXIF 0064  
                      _WPUB 0095                        _main 07F2                        _menu 02B8  
                      _uart 0020                        btemp 007E    __size_of_escribir_eeprom 001D  
                      start 0012                       ??_isr 0028                       ?_main 0070  
                     ?_menu 0070             __end_of___awdiv 07AF                       _EEADR 010D  
                     STR_10 0628                       _EEDAT 010C                       STR_11 0652  
                     STR_12 0522                       STR_13 05BB                       STR_14 0541  
                     STR_15 05D8                       STR_16 063D                       STR_17 06B1  
                     STR_18 06C2                       STR_19 0612                       _ANSEL 0188  
           ___awdiv@divisor 0070                       i1l220 02AB                       i1l301 07E6  
                     i1l221 02AD                       i1l303 07EC                       i1l304 07F1  
                     i1l241 0D9D                       i1l217 02AC                       i1l250 0CEE  
                     i1l330 0FFF                       i1l244 0DB6                       i1l253 0D07  
                     i1l341 039C                       i1l333 0312                       i1l181 0054  
                     i1l238 0CD5                       i1l262 0E1A                       i1l182 007A  
                     i1l247 0DCF                       i1l271 0E33                       i1l183 0072  
                     i1l280 0D52                       i1l352 03F8                       i1l256 0DE8  
                     i1l265 0D20                       i1l337 0366                       i1l274 0E4C  
                     i1l283 0D6B                       i1l259 0E01                       i1l380 04FE  
                     i1l268 0D39                       i1l348 03C8                       i1l292 04F4  
                     i1l365 049E                       i1l357 0460                       i1l277 0E65  
                     i1l374 04DB                       i1l286 0E7E                       i1l295 0D84  
                     i1l359 0441                       i1l472 07D4                       i1l377 04F6  
                     i1l369 04C1                       i1l289 0E97                       i1l298 0CBC  
                     i1l629 07AE             ___awdiv@counter 0075                       _RCREG 001A  
                     _SPBRG 0099                       _PORTA 0005                       _PORTB 0006  
                     _PORTC 0007                       _PORTD 0008                       _PORTE 0009  
                     _TRISA 0085                       _TXREG 0019  __size_of_nuevo_bit_banging 0168  
                     _setup 06CF                       _putch 04F5                       pclath 000A  
                     status 0003                       wtemp0 007E             __initialization 0015  
              __end_of_main 07FE                __end_of_menu 04DC                      ??_main 002F  
                    ??_menu 0078                      _ADRESH 001E                      _EEDATA 010C  
                    _CCPR1L 0015                      _CCPR2L 001B                      _EECON2 018D  
          ___awdiv@dividend 0072                      ?_setup 0070                      ?_putch 0070  
                    _ANSELH 0189                      i1l2000 0327                      i1l2010 036C  
                    i1l2002 0330                      i1l2100 04D2                      i1l2020 038A  
                    i1l2012 0372                      i1l2004 0342                      i1l2030 03AD  
                    i1l2022 0390                      i1l2014 0378                      i1l2006 034B  
                    i1l2040 03E6                      i1l2032 03B6                      i1l2024 0396  
                    i1l2016 037E                      i1l2008 035D                      i1l2210 0748  
                    i1l2042 03FE                      i1l2050 0417                      i1l2034 03CE  
                    i1l2018 0384                      i1l2026 039C                      i1l2220 0758  
                    i1l2212 0749                      i1l2060 044D                      i1l2052 041D  
                    i1l2044 0404                      i1l2036 03D4                      i1l2028 03A4  
                    i1l2300 00BF                      i1l2230 076C                      i1l2222 075D  
                    i1l2214 074D                      i1l2070 0471                      i1l2062 0452  
                    i1l2054 0426                      i1l2046 0409                      i1l2038 03DD  
                    i1l2310 00DF                      i1l2302 00C5                      i1l2240 0792  
                    i1l2232 0773                      i1l2224 0761                      i1l2216 0752  
                    u120_20 07D4                      i1l2080 04AA                      i1l2072 047A  
                    i1l2064 045A                      i1l2056 042F                      i1l2048 0411  
                    i1l2400 01D9                      i1l2320 00F8                      i1l2312 00E3  
                    i1l2304 00CA                      u200_20 00AE                      u120_21 07D3  
                    u200_21 00AD                      i1l2250 07AA                      i1l2242 0793  
                    i1l2234 0777                      i1l2226 0763                      i1l2218 0754  
                    i1l2090 04B8                      i1l2082 04AB                      i1l2074 048C  
                    i1l2058 0447                      i1l2066 0460                      i1l2410 01F2  
                    i1l2402 01DF                      i1l2330 0114                      i1l2322 00FE  
                    i1l2314 00E7                      i1l2306 00D0                      i1l2244 079A  
                    i1l2236 077B                      i1l2228 0769                      i1l2092 04BE  
                    i1l2084 04AE                      i1l2076 0495                      i1l2068 0468  
                    i1l2412 01F6                      i1l2420 0242                      i1l2332 011A  
                    i1l2324 0103                      i1l2316 00ED                      i1l2340 0131  
                    i1l2308 00D6                      i1l2404 01E4                      i1l2260 0038  
                    i1l2238 078C                      i1l2246 07A0                      i1l2086 04B4  
                    i1l2078 04A4                      i1l2094 04C1                      i1l2430 0291  
                    i1l2422 0246                      i1l2414 01F7                      i1l2406 01EB  
                    i1l2350 014D                      i1l2342 013A                      i1l2334 0120  
                    i1l2326 0109                      i1l2318 00F2                      i1l2270 005C  
                    i1l2262 003C                      i1l2254 0027                      i1l2248 07A5  
                    u121_20 07EC                      i1l1720 0CC0                      i1l2096 04C7  
                    i1l2088 04B6                      i1l1800 0E59                      i1l2440 02A3  
                    i1l2424 0247                      i1l2432 0294                      i1l2416 0231  
                    i1l2360 016A                      i1l2352 0153                      i1l2344 013E  
                    i1l2336 0125                      i1l2328 010F                      u201_20 00B4  
                    i1l2280 0088                      i1l2272 0070                      i1l2264 003E  
                    i1l2256 002B                      i1l2408 01EE                      u121_21 07EB  
                    u201_21 00B3                      i1l1714 04F6                      i1l1722 0CC9  
                    i1l1802 0D3A                      i1l1810 0D56                      i1l2098 04C9  
                    i1l1730 0D9E                      i1l2434 0298                      i1l2426 027E  
                    i1l2418 023F                      i1l2370 0186                      i1l2362 016F  
                    i1l2354 0159                      i1l2346 0142                      i1l2338 012B  
                    i1l2290 00A3                      i1l2282 008C                      i1l2274 0076  
                    i1l2266 003F                      i1l2258 0034                      i1l1716 04FC  
                    i1l1804 0D3D                      i1l1812 0D5F                      i1l1724 0D85  
                    i1l1732 0DA1                      i1l1740 0DC3                      i1l1820 0E7F  
                    i1l1900 0F13                      i1l2436 0299                      i1l2428 0283  
                    i1l2380 01A1                      i1l2364 0175                      i1l2356 015E  
                    i1l2348 0148                      i1l2372 018C                      i1l2292 00A8  
                    i1l2284 0092                      i1l2268 0058                      i1l2276 007B  
                    i1l1718 0CBD                      i1l1742 0CD6                      i1l1750 0CF2  
                    i1l1806 0D46                      i1l1726 0D88                      i1l1734 0DAA  
                    i1l1814 0E66                      i1l1822 0E82                      i1l1830 04E8  
                    i1l1910 0F31                      i1l1902 0F19                      i1l2438 029E  
                    i1l2390 01BD                      i1l2382 01A6                      i1l2374 0195  
                    i1l2366 017B                      i1l2358 0164                      i1l2294 00AE  
                    i1l2286 0097                      i1l2278 0084                      i1l1840 07B4  
                    i1l1744 0CD9                      i1l1752 0CFB                      i1l1808 0D53  
                    i1l1832 0D6C                      i1l1728 0D91                      i1l1736 0DB7  
                    i1l1760 0DE9                      i1l1816 0E69                      i1l1824 0E8B  
                    i1l1920 0F53                      i1l1912 0F39                      i1l1904 0F1E  
                    u130_20 0EF3                      u122_20 0EA0                      i1l2392 01C3  
                    i1l2384 01AC                      i1l2376 0199                      i1l2368 0180  
                    u210_20 010F                      u202_20 00BF                      i1l2296 00B4  
                    i1l2288 009D                      u130_21 0EF2                      u122_21 0E9F  
                    u210_21 010E                      u202_21 00BE                      i1l1850 07E0  
                    i1l1842 07BA                      i1l1746 0CE2                      i1l1834 0D6F  
                    i1l1738 0DBA                      i1l1754 0DD0                      i1l1762 0DEC  
                    i1l1770 0E0E                      i1l1818 0E72                      i1l1826 04DC  
                    i1l1930 0F71                      i1l1922 0F59                      i1l1914 0F3E  
                    i1l1906 0F26                      i1l2394 01C8                      i1l2386 01B2  
                    i1l2378 019B                      i1l2298 00B9                      i1l1852 07E5  
                    i1l1844 07D6                      i1l1748 0CEF                      i1l1772 0D08  
                    i1l1780 0D24                      i1l1836 0D78                      i1l1756 0DD3  
                    i1l1764 0DF5                      i1l1828 04DF                      i1l1940 0F91  
                    i1l1932 0F79                      i1l1924 0F5E                      i1l1916 0F46  
                    i1l1908 0F2C                      i1l2396 01CE                      i1l2388 01B7  
                    i1l1846 07DC                      i1l1854 0CAD                      i1l1838 07AF  
                    i1l1774 0D0B                      i1l1782 0D2D                      i1l1758 0DDC  
                    i1l1766 0E02                      i1l1790 0E34                      i1l1950 0FB1  
                    i1l1942 0F99                      i1l1934 0F7F                      i1l1926 0F66  
                    i1l1918 0F4B                      i1l1870 0EB3                      i1l1862 0E98  
                    i1l2398 01D4                      i1l1848 07DF                      i1l1856 0CB1  
                    i1l1776 0D14                      i1l1768 0E05                      i1l1784 0E1B  
                    i1l1792 0E37                      i1l1960 0FD2                      i1l1952 0FB9  
                    i1l1944 0F9E                      i1l1936 0F84                      i1l1928 0F6C  
                    u131_20 0F00                      i1l1880 0ED3                      i1l1872 0EB8  
                    u123_20 0EAD                      i1l1864 0EA0                      u211_20 011A  
                    u203_20 00C5                      u131_21 0EFF                      u123_21 0EAC  
                    u211_21 0119                      u203_21 00C4                      i1l1858 0CB4  
                    i1l1778 0D21                      i1l1786 0E1E                      i1l1794 0E40  
                    i1l1970 0FEC                      i1l1962 0FD7                      i1l1954 0FBF  
                    i1l1946 0FA6                      i1l1938 0F8C                      i1l1890 0EF3  
                    i1l1882 0ED9                      i1l1874 0EC0                      i1l1866 0EA5  
                    i1l1788 0E27                      i1l1796 0E4D                      i1l1980 0FFD  
                    i1l1972 0FEE                      i1l1964 0FDF                      i1l1956 0FC4  
                    i1l1948 0FAC                      i1l1892 0EF8                      i1l1884 0EDE  
                    i1l1876 0EC6                      i1l1868 0EAD                      i1l1990 02E5  
                    i1l1982 02B8                      i1l1798 0E50                      i1l1974 0FF4  
                    i1l1966 0FE4                      i1l1958 0FCC                      i1l1894 0F00  
                    i1l1886 0EE6                      i1l1878 0ECB                      i1l1992 02F7  
                    i1l1984 02C1                      i1l1976 0FF6                      i1l1968 0FEB  
                    u140_20 0F59                      i1l1896 0F06                      u132_20 0F06  
                    i1l1888 0EEB                      u124_20 0EB3                      u220_20 0175  
                    u212_20 0120                      u204_20 00D0                      u140_21 0F58  
                    u132_21 0F05                      u124_21 0EB2                      u220_21 0174  
                    u212_21 011F                      u204_21 00CF                      i1l1994 0300  
                    i1l1986 02CA                      i1l1978 0FF7                      i1l1898 0F0B  
                    i1l1996 0318                      i1l1988 02DC                      i1l1998 031E  
                    u141_20 0F66                      u133_20 0F13                      u125_20 0EC0  
                    u221_20 017B                      u213_20 012B                      u205_20 00DF  
                    u141_21 0F65                      u133_21 0F12                      u125_21 0EBF  
                    u221_21 017A                      u213_21 012A                      u205_21 00DE  
                    u150_20 0FBF                      u142_20 0F6C                      u134_20 0F19  
                    u126_20 0EC6                      u230_20 01D4                      u222_20 0186  
                    u214_20 013A                      u206_20 00ED                      u150_21 0FBE  
                    u142_21 0F6B                      u134_21 0F18                      u126_21 0EC5  
                    u230_21 01D3                      u222_21 0185                      u214_21 0139  
                    u206_21 00EC                      u119_20 04FC                      u151_20 0FCC  
                    u143_20 0F79                      u135_20 0F26                      u127_20 0ED3  
                    u231_20 01DF                      u223_20 0195                      u215_20 0148  
                    u207_20 00F8                      u119_21 04FB                      u151_21 0FCB  
                    u143_21 0F78                      u135_21 0F25                      u127_21 0ED2  
                    u231_21 01DE                      u223_21 0194                      u215_21 0147  
                    u207_21 00F7                      u160_20 0372                      u152_20 0FD2  
                    u144_20 0F7F                      u136_20 0F2C                      u128_20 0ED9  
                    u232_20 01F2                      u224_20 01A1                      u216_20 0153  
                    u208_20 00FE                      u160_21 0371                      u152_21 0FD1  
                    u144_21 0F7E                      u136_21 0F2B                      u128_21 0ED8  
                    u232_21 01F1                      u224_21 01A0                      u216_21 0152  
                    u208_21 00FD                      u240_27 04E3                      u161_20 037E  
                    u153_20 0FDF                      u145_20 0F8C                      u137_20 0F39  
                    u129_20 0EE6                      u233_20 01F6                      u225_20 01AC  
                    u217_20 0159                      u209_20 0109                      u161_21 037D  
                    u153_21 0FDE                      u145_21 0F8B                      u137_21 0F38  
                    u129_21 0EE5                      u233_21 01F5                      u225_21 01AB  
                    u217_21 0158                      u209_21 0108                      u241_27 04EF  
                    u170_20 041D                      u162_20 038A                      u154_20 0FEB  
                    u146_20 0F99                      u138_20 0F46                      u234_20 0246  
                    u226_20 01B2                      u218_20 0164                      u170_21 041C  
                    u162_21 0389                      u154_21 0FEA                      u146_21 0F98  
                    u138_21 0F45                      u234_21 0245                      u226_21 01B1  
                    u218_21 0163                      u250_27 0E22                      u242_27 0E86  
                    u171_20 0447                      u163_20 0396                      u155_20 0FF4  
                    u147_20 0FA6                      u139_20 0F53                      u235_20 0298  
                    u227_20 01BD                      u219_20 016A                      u171_21 0446  
                    u163_21 0395                      u155_21 0FF3                      u147_21 0FA5  
                    u139_21 0F52                      u235_21 0297                      u227_21 01BC  
                    u219_21 0169                      u251_27 0E2E                      u243_27 0E92  
                    u172_20 044D                      u164_20 03A4                      u156_20 0FFD  
                    u148_20 0FAC                      u236_20 02AB                      u228_20 01C3  
                    u172_21 044C                      u164_21 03A3                      u156_21 0FFC  
                    u148_21 0FAB                      u236_21 02AA                      u228_21 01C2  
                    u260_27 0DA5                      u252_27 0E09                      u244_27 0E6D  
                    u181_20 074D                      u173_20 045A                      u165_20 03CE  
                    u157_20 0318                      u149_20 0FB9                      u229_20 01CE  
                    u181_21 074C                      u173_21 0459                      u165_21 03CD  
                    u157_21 0317                      u149_21 0FB8                      u229_21 01CD  
                    u261_27 0DB1                      u253_27 0E15                      u245_27 0E79  
                    u237_27 01E8                      u190_20 07A5                      u182_20 0758  
                    u174_20 0468                      u166_20 03D4                      u158_20 031E  
                    u190_21 07A4                      u182_21 0757                      u174_21 0467  
                    u166_21 03D3                      u158_21 031D                      u270_27 0334  
                    u262_27 0D8C                      u254_27 0DF0                      u246_27 0E54  
                    u238_27 0239                      u183_20 0769                      u175_20 04A4  
                    u167_20 03FE                      u159_20 036C                      u191_20 002B  
                    u183_21 0768                      u175_21 04A3                      u167_21 03FD  
                    u159_21 036B                      u191_21 002A                      u271_27 0346  
                    u263_27 0D98                      u255_27 0DFC                      u247_27 0E60  
                    u239_27 028B                      u176_20 04AA                      u168_20 0404  
                    u192_20 0034                      u176_21 04A9                      u168_21 0403  
                    u192_21 0033                      u184_25 076D                      u280_27 047E  
                    u272_27 0358                      u264_27 02BC                      u256_27 0DD7  
                    u248_27 0E3B                      u185_20 077B                      u177_20 04B4  
                    u169_20 0411                      u193_20 003C                      u185_21 077A  
                    u177_21 04B3                      u169_21 0410                      u193_21 003B  
                    u281_27 0490                      u273_27 03A8                      u265_27 02CE  
                    u257_27 0DE3                      u249_27 0E47                      u178_20 04BE  
                    u194_20 0058                      u178_21 04BD                      u194_21 0057  
                    u186_25 077C                      u290_27 0D34                      u282_27 04D6  
                    u274_27 03BA                      u266_27 02E0                      u258_27 0DBE  
                    u187_20 078C                      u179_20 04C7                      u195_20 0076  
                    u187_21 078B                      u179_21 04C6                      u195_21 0075  
                    u187_25 0788                      u291_27 0D0F                      u283_27 0D73  
                    u275_27 03D8                      u267_27 02F2                      u259_27 0DCA  
                    u196_20 0084                      u196_21 0083                      u188_25 0794  
                    u292_27 0D1B                      u284_27 0D7F                      u276_27 03EA  
                    u268_27 0304                      u189_20 07A0                      u197_20 0092  
                    u189_21 079F                      u197_21 0091                      u293_27 0CF4  
                    u285_27 0D58                      u277_27 0421                      u269_27 0322  
                    u198_20 009D                      u198_21 009C                      u294_27 0D02  
                    u286_27 0D66                      u278_27 0433                      u199_20 00A3  
                    u199_21 00A2                      u295_27 0CDD                      u287_27 0D41  
                    u279_27 046C                      u296_27 0CE9                      u288_27 0D4D  
                    u297_27 0CC2                      u289_27 0D26                      u298_27 0CD0  
                    _SPBRGH 009A                   ??___awdiv 0074           ??_escribir_eeprom 0071  
          ___awdiv@quotient 0077                      _servo1 0CBD                      _servo2 0CEF  
                    _servo3 0D21                      _servo4 0D53                      _printf 07AF  
          __end_of_servo1_2 0D9E            __end_of_servo1_3 0DB7            __end_of_servo1_4 0DD0  
          __end_of_servo1_5 0CEF            __end_of_servo2_2 0DE9            __end_of_servo2_3 0E02  
          __end_of_servo2_4 0E1B            __end_of_servo2_5 0D21            __end_of_servo3_2 0E34  
          __end_of_servo3_3 0E4D            __end_of_servo3_4 0E66            __end_of_servo3_5 0D53  
          __end_of_servo4_2 0E7F            __end_of_servo4_3 0E98            __end_of_servo4_4 04F5  
          __end_of_servo4_5 0D85                      saved_w 007E     __end_of__initialization 0023  
      __size_of_leer_eeprom 0011    escribir_eeprom@direccion 0070              __pcstackCOMMON 0070  
             __end_of_setup 0748               __end_of_putch 04FF              _OPTION_REGbits 0081  
                   ??_setup 002F                     ??_putch 0070                  __pbssBANK0 0020  
                __pmaintext 07F2                  __pintentry 0004                     ?_servo1 0070  
                   ?_servo2 0070                     ?_servo3 0070                     ?_servo4 0070  
                   ?_printf 0071                  __stringtab 0800                   ?_servo1_2 0070  
                 ?_servo1_3 0070                   ?_servo1_4 0070                   ?_servo1_5 0070  
                 ?_servo2_2 0070                   ?_servo2_3 0070                   ?_servo2_4 0070  
                 ?_servo2_5 0070                   ?_servo3_2 0070                   ?_servo3_3 0070  
                 ?_servo3_4 0070                   ?_servo3_5 0070                   ?_servo4_2 0070  
                 ?_servo4_3 0070                   ?_servo4_4 0070                   ?_servo4_5 0070  
                   ___awdiv 0748                     __ptext1 06CF                     __ptext2 0027  
                   __ptext3 0E98                     __ptext4 04DC                     __ptext5 0E7F  
                   __ptext6 0E66                     __ptext7 0E4D                     __ptext8 0E34  
                   __ptext9 0E1B             __size_of_servo1 0019             __size_of_servo2 0019  
           __size_of_servo3 0019             __size_of_servo4 0019             __size_of_printf 0026  
                 _T2CONbits 0012                __size_of_isr 0291                     _sentido 0023  
      end_of_initialization 0023             _escribir_eeprom 07D5                  ??_servo1_2 0070  
                ??_servo1_3 0070                  ??_servo1_4 0070                  ??_servo1_5 0070  
                ??_servo2_2 0070                  ??_servo2_3 0070                  ??_servo2_4 0070  
                ??_servo2_5 0070                  ??_servo3_2 0070                  ??_servo3_3 0070  
                ??_servo3_4 0070                  ??_servo3_5 0070                  ??_servo4_2 0070  
                ??_servo4_3 0070                  ??_servo4_4 0070                  ??_servo4_5 0070  
                 _RCSTAbits 0018                     printf@c 0077                     printf@f 0071  
              __pstringtext 0500                   _PORTBbits 0006                   _PORTDbits 0008  
                 _TRISBbits 0086                   _TRISCbits 0087                   _TRISDbits 0088  
                 _TRISEbits 0089                 _CCP1CONbits 0017                 _CCP2CONbits 001D  
                 _TXSTAbits 0098                 _BAUDCTLbits 0187              __end_of_servo1 0CD6  
            __end_of_servo2 0D08              __end_of_servo3 0D3A              __end_of_servo4 0D6C  
            __end_of_printf 07D5         start_initialization 0015                 __end_of_isr 02B8  
   __end_of_escribir_eeprom 07F2               ??_leer_eeprom 0070                    ??_servo1 0070  
                  ??_servo2 0070                    ??_servo3 0070                    ??_servo4 0070  
                  ??_printf 0073                 __pbssCOMMON 007A                   ___latbits 0002  
             __pcstackBANK0 0028         __end_of_leer_eeprom 0CBD                    ?___awdiv 0070  
         __size_of_servo1_2 0019           __size_of_servo1_3 0019           __size_of_servo1_4 0019  
         __size_of_servo1_5 0019           __size_of_servo2_2 0019           __size_of_servo2_3 0019  
         __size_of_servo2_4 0019           __size_of_servo2_5 0019           __size_of_servo3_2 0019  
         __size_of_servo3_3 0019           __size_of_servo3_4 0019           __size_of_servo3_5 0019  
         __size_of_servo4_2 0019           __size_of_servo4_3 0019           __size_of_servo4_4 0019  
         __size_of_servo4_5 0019                   __pstrings 0800            ?_escribir_eeprom 0070  
            __size_of_setup 0079              __size_of_putch 000A           interrupt_function 0004  
                  _IOCBbits 0096                    _PIE1bits 008C                    _PIR1bits 000C  
                  _PIR2bits 000D                  _ADCON0bits 001F                 __stringbase 0812  
                _ADCON1bits 009F                 _leer_eeprom 0CAC         escribir_eeprom@data 0071  
                _EECON1bits 018C            __size_of___awdiv 0067          __end_of__stringtab 0812  
                  __ptext10 0E02                    __ptext11 0DE9                    __ptext20 0D21  
                  __ptext12 0DD0                    __ptext21 0D08                    __ptext13 0DB7  
                  __ptext22 0CEF                    __ptext14 0D9E                    __ptext23 0CD6  
                  __ptext15 0D85                    __ptext24 0CBD                    __ptext16 02B8  
                  __ptext25 07AF                    __ptext17 0D6C                    __ptext26 04F5  
                  __ptext18 0D53                    __ptext27 0CAC                    __ptext19 0D3A  
                  __ptext28 07D5                    __ptext29 0748               __size_of_main 000C  
             __size_of_menu 0224                    _servo1_2 0D85                    _servo1_3 0D9E  
                  _servo1_4 0DB7                    _servo1_5 0CD6                    _servo2_2 0DD0  
                  _servo2_3 0DE9                    _servo2_4 0E02                    _servo2_5 0D08  
                  _servo3_2 0E1B                    _servo3_3 0E34                    _servo3_4 0E4D  
                  _servo3_5 0D3A                    _servo4_2 0E66                    _servo4_3 0E7F  
                  _servo4_4 04DC                    _servo4_5 0D6C                    _sentido2 0022  
                 putch@info 0070                  _INTCONbits 000B           _nuevo_bit_banging 0E98  
                  intlevel1 0000          ?_nuevo_bit_banging 0070         ??_nuevo_bit_banging 0072  
                 stringcode 080A                  _OSCCONbits 008F                    printf@ap 0076  
 __end_of_nuevo_bit_banging 1000                    stringtab 0800             leer_eeprom@data 0072  
      leer_eeprom@direccion 0071  
